// mark_description "Intel(R) C++ Compiler for applications running on IA-64, Version 10.0    Build 20070809 %s";
// mark_description "-I/home_nfs/home_zuckerms/micro_threads/lib -I/home_nfs/home_zuckerms/local/include -I/opt/intel/mkl/10.0.1";
// mark_description ".014/include -S -O3 -fno-alias -openmp -DELTDOUBLE -DITANIUM2_INTEL -DD1= -DD2= -DD3=";
	//.radix C
	.file "copy.c"
	.section .text, "xa", "progbits"
	.align 64
// -- Begin memcpy2D
	.align 64
	.proc memcpy2D#
// Block 0: entry  Pred:     Succ: 1 2  -GO
// Freq 1.0e+00
	.global memcpy2D#

memcpy2D:
memcpy2D??unw:
 {   .mii
	alloc	r29=ar.pfs,6,37,0,8			//0: {18:1:copy.c} 608
	mov	r40=pr					//0: {18:1} 594
	sxt4	r24=r35					//0: {18:1} 14
 }
 {   .mmb
	cmp4.gt.unc	p7,p6=1,r32			//0: {20:5} 31
	add	r65=1,r0				//0: {20:5} 28
	nop.b	0 ;;
 }
 {   .mmi
  (p6)	cmp4.lt.unc	p15,p14=r33,r0			//1: {22:2} 313
	sub	r27=r24,r35				//1: {18:1} 17
  (p6)	sxt4	r70=r33					//1: {22:2} 39
 }
 {   .mmi
	shladd	r20=r24,3,r0				//1: {18:1} 15
	mov	r66=r24					//1: {18:1} 16
	sxt4	r28=r37 ;;				//1: {18:1} 9
 }
 {   .mmi
	sub	r19=r34,r20				//2: {18:1} 25
	shladd	r71=r28,3,r36				//2: {18:1} 10
	mov	r74=ar.lc				//2: {18:1} 2
 }
 {   .mmi
  (p14)add	r14=1,r0				//2: {22:2} 38
  (p15)add	r14=0,r0				//2: {22:2} 37
	add	r25=2,r27 ;;				//2: {18:1} 18
 }
 {   .mmi
	add	r52=r19,r20				//3: {18:1} 26
	mov	r19=r32					//3: {18:1} 3
	add	r17=-2,r25				//3: {18:1} 22
 }
 {   .mmi
	add	r53=8,r71				//3: {18:1} 12
	mov	r50=r71					//3: {18:1} 11
	add	r18=-1,r25 ;;				//3: {18:1} 19
 }
 {   .mmi
	add	r73=-8,r52				//4: {18:1} 27
	shladd	r56=r28,3,r36				//4: {18:1} 13
	sxt4	r15=r17					//4: {18:1} 23
 }
 {   .mmi
  (p6)	add	r49=-1,r37				//4: {22:2} 40
	add	r55=0,r0				//4: {18:1} 29
	sxt4	r16=r18 ;;				//4: {18:1} 20
 }
 {   .mmi
	mov	r68=r35					//5: {18:1} 6
	mov	r64=r34					//5: {18:1} 5
	shladd	r54=r15,3,r34				//5: {18:1} 24
 }
 {   .mmi
	mov	r63=r36					//5: {18:1} 7
	mov	r67=r37					//5: {18:1} 8
	shladd	r51=r16,3,r34 ;;			//5: {18:1} 21
 }
 {   .mib
	mov	r72=r33					//6: {18:1} 4
	add	r3=0,r0					//6: {18:1} 30
// Branch taken probability 0.00
  (p7)	br.cond.dpnt	.b1_1 ;;			//6: {20:5} 32
// Block 2: prolog collapsed  Pred: 0     Succ: 3  -G
// Freq 2.5e-02
 }
 {   .mmi
	add	r47=1,r67				//0: {22:2} 41
	add	r46=17,r67				//0: {22:2} 42
	cmp.lt.unc	p13,p12=r70,r0			//0: {22:2} 309
 }
 {   .mmi
	add	r58=33,r67				//0: {22:2} 43
	add	r61=49,r67				//0: {22:2} 44
	cmp4.eq.unc	p10,p9=r14,r0 ;;		//0: {22:2} 311
 }
 {   .mmi
  (p10)add	r11=1,r72				//1: {22:2} 56
  (p9)	mov	r11=r72					//1: {22:2} 57
  (p13)add	r10=0,r0				//1: {22:2} 60
 }
 {   .mmi
	add	r60=65,r67				//1: {22:2} 45
	add	r59=81,r67				//1: {22:2} 46
  (p12)add	r10=1,r0 ;;				//1: {22:2} 61
 }
 {   .mmi
	add	r57=299,r67				//2: {22:2} 47
	add	r45=16,r67				//2: {22:2} 48
	extr	r9=r11,1,31				//2: {22:2} 62
 }
 {   .mmi
	add	r44=32,r67				//2: {22:2} 49
	add	r43=48,r67				//2: {22:2} 50
	cmp.eq.unc	p8,p7=r10,r0 ;;			//2: {22:2} 307
 }
 {   .mmi
  (p8)	add	r8=1,r70				//3: {22:2} 65
	add	r42=64,r67				//3: {22:2} 51
	sxt4	r48=r9					//3: {22:2} 67
 }
 {   .mmi
	add	r41=80,r67				//3: {22:2} 52
	add	r28=149,r67				//3: {22:2} 53
  (p7)	mov	r8=r70 ;;				//3: {22:2} 66
 }
 {   .mii
	nop.m	0
	extr	r62=r8,1,63				//4: {22:2} 68
	nop.i	0 ;;
// Block 3: lentry  Pred: 6 2     Succ: 4 5     In Loops: L0  -G
// Freq 5.0e+00
 }
.b1_3: 
 {   .mii
	add	r16=8,r73				//0: {22:2} 74
	cmp4.lt.unc	p1,p0=16,r72			//0: {22:2} 69
	mov	r18=r71					//0: {22:2} 75
 }
 {   .mbb
	cmp.gt.unc	p6,p0=1,r70			//0: {22:2} 76
// Branch taken probability 0.50
  (p1)	br.cond.dptk	.b1_4				//0: {22:2} 70
// Block 5:  Pred: 3     Succ: 6 7     In Loops: L0  -G
// Freq 5.0e+00
// Branch taken probability 0.00
  (p6)	br.cond.dpnt	.b1_6 ;;			//0: {22:2} 77
// Block 7: prolog  Pred: 5     Succ: 8     In Loops: L0  -O
// Freq 6.2e-02
 }
 {   .mii
	add	r10=r65,r45				//0: {22:2} 94
	mov	pr.rot=0x10000				//0: {22:2} 234
	add	r17=r67,r65				//0: {22:2} 90
 }
 {   .mmb
	add	r27=r65,r44				//0: {22:2} 98
	add	r2=r65,r41				//0: {22:2} 110
	clrrrb.pr	 ;;				//0: {22:2} 235
 }
 {   .mii
	nop.m	0
	sxt4	r15=r17					//1: {22:2} 91
	sxt4	r9=r10					//1: {22:2} 95
 }
 {   .mmb
	add	r10=r65,r42				//1: {22:2} 106
	add	r17=r65,r43				//1: {22:2} 102
	nop.b	0 ;;
 }
 {   .mii
	shladd	r14=r15,3,r63				//2: {22:2} 92
	sxt4	r15=r17					//2: {22:2} 103
	sxt4	r26=r27					//2: {22:2} 99
 }
 {   .mmb
	add	r27=r65,r28				//2: {22:2} 114
	shladd	r8=r9,3,r63				//2: {22:2} 96
	nop.b	0 ;;
 }
 {   .mmi
	shladd	r25=r26,3,r63				//3: {22:2} 100
	lfetch.nt1	[r14]				//3: {22:2} 93
	sxt4	r30=r2					//3: {22:2} 111
 }
 {   .mii
	shladd	r14=r15,3,r63				//3: {22:2} 104
	sxt4	r9=r10 ;;				//3: {22:2} 107
	sxt4	r26=r27					//4: {22:2} 115
 }
 {   .mmi
	lfetch.nt1	[r25]				//4: {22:2} 101
	add	r25=-1,r70				//4: {22:2} 117
	shladd	r29=r30,3,r63 ;;			//4: {22:2} 112
 }
 {   .mii
	lfetch.nt1	[r29]				//5: {22:2} 113
	mov	ar.lc=r25				//5: {22:2} 118
	shladd	r17=r26,3,r63 ;;			//5: {22:2} 116
 }
 {   .mii
	lfetch.nt1	[r8]				//6: {22:2} 97
	mov	ar.ec=12				//6: {22:2} 236
	shladd	r8=r9,3,r63 ;;				//6: {22:2} 108
 }
 {   .mmi
	lfetch.nt1	[r8] ;;				//7: {22:2} 109
	lfetch.nt1	[r14]				//8: {22:2} 105
	nop.i	0 ;;
// Block 8: lentry lexit ltail collapsed pipelined  Pred: 8 7     Succ: 8 99     In Loops: L3 L0  -S
// Freq 1.2e+01
 }
.b1_8: 
 {   .mii
  (p16)ldfd	f32=[r18],8				//0: {23:6} 119 lat: 11
	nop.i	0
	nop.i	0
 }
 {   .mmb
  (p16)lfetch.nt1	[r17],8				//0: {22:2} 121
  (p27)stfd	[r16]=f43,8				//11: {23:6} 120
// Branch taken probability 1.00
	br.ctop.sptk	.b1_8 ;;			//0: {22:2} 125
// Block 99:  Pred: 8     Succ: 6     In Loops: L0  -O
// Freq 0.0e+00
 }
 {   .mib
	nop.m	0
	nop.i	0
	br.cond.sptk	.b1_6 ;;			//0: {22:2} 609
// Block 4:  Pred: 3     Succ: 9 93     In Loops: L0  -G
// Freq 4.5e+00
 }
.b1_4: 
 {   .mii
	add	r9=r65,r49				//0: {22:2} 153
	add	r69=1,r0				//0: {22:2} 71
	cmp.gt.unc	p0,p7=1,r48			//0: {22:2} 72
 }
 {   .mmb
	add	r16=r65,r47				//0: {22:2} 126
	add	r14=r65,r46				//0: {22:2} 130
// Branch taken probability 0.50
  (p7)	br.cond.dptk.many	.b1_9 ;;		//0: {22:2} 73
// Block 93:  Pred: 4     Succ: 11 98     In Loops: L0  -GO
// Freq 2.2e+00
 }
 {   .mii
	mov	r9=r56					//0: {22:2} 173
	cmp4.ne.unc	p12,p8=r55,r0			//0: {23:6} 495
	mov	r2=r54					//0: {22:2} 496
 }
 {   .mmb
	mov	r8=r51					//0: {22:2} 497
	add	r11=16,r73				//0: {22:2} 498
	nop.b	0 ;;
 }
 {   .mmi
  (p12)cmp.gt.unc	p14,p0=1,r62			//1: {22:2} 168
  (p12)mov	r14=r53					//1: {22:2} 165
  (p8)	cmp.gt.unc	p13,p0=1,r62			//1: {22:2} 174
 }
 {   .mmi
  (p12)mov	r10=r52					//1: {22:2} 166
  (p12)mov	r15=r50					//1: {22:2} 501
  (p8)	add	r15=1,r0 ;;				//1: {22:2} 502
 }
 {   .mbb
  (p12)add	r9=1,r0					//2: {22:2} 503
// Branch taken probability 0.50
  (p12)br.cond.dptk	.b1_11				//2: {23:6} 607
// Block 98:  Pred: 93     Succ: 12     In Loops: L0  -
// Freq 1.1e+00
	br.cond.sptk.many	.b1_12 ;;		//2: {22:2} 606
// Block 9: collapsed  Pred: 4     Succ: 10     In Loops: L0  -G
// Freq 2.2e+00
 }
.b1_9: 
 {   .mmi
	add	r10=r65,r61				//0: {22:2} 138
	add	r2=r65,r60				//0: {22:2} 142
	sxt4	r8=r9					//0: {22:2} 154
 }
 {   .mmi
	add	r18=r65,r59				//0: {22:2} 146
	add	r17=r65,r58				//0: {22:2} 134
	sxt4	r15=r16 ;;				//0: {22:2} 127
 }
 {   .mmi
	shladd	r11=r8,3,r63				//1: {22:2} 155
	add	r30=r65,r57				//1: {22:2} 150
	sxt4	r10=r10					//1: {22:2} 139
 }
 {   .mmi
	shladd	r8=r15,3,r63				//1: {22:2} 128
	mov	r9=r56					//1: {22:2} 494
	sxt4	r29=r17 ;;				//1: {22:2} 135
 }
 {   .mmi
	and	r27=15,r11				//2: {22:2} 156
	shladd	r26=r29,3,r63				//2: {22:2} 136
	sxt4	r25=r18					//2: {22:2} 147
 }
 {   .mmi
	shladd	r18=r10,3,r63				//2: {22:2} 140
	lfetch.nt1	[r8]				//2: {22:2} 129
	sxt4	r17=r2 ;;				//2: {22:2} 143
 }
 {   .mmi
	shladd	r16=r17,3,r63				//3: {22:2} 144
	shladd	r15=r25,3,r63				//3: {22:2} 148
	sxt4	r11=r14					//3: {22:2} 131
 }
 {   .mmi
	cmp.eq.unc	p10,p9=r27,r0			//3: {22:2} 451
	lfetch.nt1	[r26]				//3: {22:2} 137
	sxt4	r10=r30 ;;				//3: {22:2} 151
 }
 {   .mmi
	shladd	r8=r11,3,r63				//4: {22:2} 132
	lfetch.nt1	[r16]				//4: {22:2} 145
  (p10)add	r55=0,r0				//4: {22:2} 159
 }
 {   .mmi
	shladd	r3=r10,3,r63				//4: {22:2} 152
	add	r11=16,r73				//4: {22:2} 167
  (p9)	add	r55=1,r0 ;;				//4: {22:2} 160
 }
 {   .mmi
	lfetch.nt1	[r8]				//5: {22:2} 133
	mov	r2=r54					//5: {22:2} 171
	cmp4.ne.unc	p12,p8=r55,r0			//5: {23:6} 161
 }
 {   .mmi
	mov	r14=r53					//5: {22:2} 499
	mov	r10=r52					//5: {22:2} 500
	mov	r8=r51 ;;				//5: {22:2} 172
 }
 {   .mmi
	lfetch.nt1	[r15]				//6: {22:2} 149
  (p12)mov	r15=r50					//6: {22:2} 164
  (p12)add	r9=1,r0					//6: {22:2} 163
 }
 {   .mmi
  (p12)cmp.gt.unc	p14,p0=1,r62			//6: {22:2} 504
  (p8)	cmp.gt.unc	p13,p0=1,r62			//6: {22:2} 505
  (p8)	add	r15=1,r0 ;;				//6: {22:2} 170
 }
 {   .mii
	lfetch.nt1	[r18]				//7: {22:2} 141
	nop.i	0
	nop.i	0 ;;
// Block 10:  Pred: 9     Succ: 11 12     In Loops: L0  -GO
// Freq 0.0e+00
 }
 {   .mib
	nop.m	0
	nop.i	0
// Branch taken probability 0.50
  (p12)br.cond.dptk	.b1_11 ;;			//0: {23:6} 162
// Block 12:  Pred: 10 98     Succ: 13 19     In Loops: L0  -GO
// Freq 5.0e+00
 }
.b1_12: 
 {   .mib
	nop.m	0
	nop.i	0
// Branch taken probability 0.00
  (p13)br.cond.dpnt	.b1_13 ;;			//0: {22:2} 175
// Block 19: prolog  Pred: 12     Succ: 14     In Loops: L0  -O
// Freq 6.2e-02
 }
 {   .mii
	mov	r33=r15					//0: {22:2} 255
	mov	pr.rot=0x10000				//0: {22:2} 257
	add	r11=-1,r62				//0: {22:2} 217
 }
 {   .mmb
	nop.m	0
	nop.m	0
	clrrrb.pr	 ;;				//0: {22:2} 258
 }
 {   .mii
	nop.m	0
	mov	ar.ec=7					//1: {22:2} 259
	sxt4	r10=r11 ;;				//1: {22:2} 218
 }
 {   .mii
	nop.m	0
	mov	ar.lc=r10				//2: {22:2} 219
	nop.i	0 ;;
// Block 14: lentry lexit ltail collapsed pipelined  Pred: 14 19     Succ: 14 15     In Loops: L2 L0  -S
// Freq 1.2e+01
 }
.b1_14: 
 {   .mmi
  (p16)ldfpd	f39,f32=[r9],16				//0: {23:6} 178 lat: 11
  (p22)stfd	[r8]=f38,16				//12: {23:6} 182
	nop.i	0 ;;
 }
 {   .mii
  (p16)lfetch.nt1	[r3],16				//1: {22:2} 183
  (p16)add	r32=1,r33				//1: {22:2} 188
	nop.i	0
 }
 {   .mmb
  (p21)stfd	[r2]=f44,16				//11: {23:6} 181
	nop.m	0
// Branch taken probability 1.00
	br.ctop.sptk	.b1_14 ;;			//1: {22:2} 189
// Block 15: epilog  Pred: 14     Succ: 13     In Loops: L0  -O
// Freq 4.5e+00
 }
 {   .mii
	shladd	r14=r39,1,r0				//0: {22:2} 190
	mov	r15=r39					//0: {22:2} 256
	nop.i	0 ;;
 }
 {   .mib
	add	r69=-1,r14				//1: {22:2} 191
	nop.i	0
	br.cond.sptk.many	.b1_13 ;;		//1: {22:2} 454
// Block 11:  Pred: 10 93     Succ: 13 20     In Loops: L0  -G
// Freq 5.0e+00
 }
.b1_11: 
 {   .mib
	nop.m	0
	nop.i	0
// Branch taken probability 0.00
  (p14)br.cond.dpnt	.b1_13 ;;			//0: {22:2} 169
// Block 20: prolog  Pred: 11     Succ: 16     In Loops: L0  -O
// Freq 6.2e-02
 }
 {   .mii
	mov	r33=r9					//0: {22:2} 281
	mov	pr.rot=0x10000				//0: {22:2} 283
	add	r16=-1,r62				//0: {22:2} 220
 }
 {   .mmb
	nop.m	0
	nop.m	0
	clrrrb.pr	 ;;				//0: {22:2} 284
 }
 {   .mii
	nop.m	0
	mov	ar.lc=r16 ;;				//1: {22:2} 221
	mov	ar.ec=7 ;;				//2: {22:2} 285
// Block 16: lentry lexit ltail collapsed pipelined  Pred: 16 20     Succ: 16 17     In Loops: L1 L0  -S
// Freq 1.2e+01
 }
.b1_16: 
 {   .mmi
  (p16)ldfd	f39=[r15],16				//0: {23:6} 192 lat: 11
  (p16)ldfd	f32=[r14],16				//0: {23:6} 194 lat: 11
	nop.i	0
 }
 {   .mmi
  (p22)stfd	[r11]=f38,16 ;;				//12: {23:6} 195
  (p16)lfetch.nt1	[r3],16				//1: {22:2} 196
  (p16)add	r32=1,r33				//1: {22:2} 202
 }
 {   .mib
  (p21)stfd	[r10]=f44,16				//11: {23:6} 193
	nop.i	0
// Branch taken probability 1.00
	br.ctop.sptk	.b1_16 ;;			//1: {22:2} 203
// Block 17: epilog  Pred: 16     Succ: 13     In Loops: L0  -O
// Freq 4.5e+00
 }
 {   .mii
	shladd	r8=r39,1,r0				//0: {22:2} 204
	mov	r9=r39					//0: {22:2} 282
	nop.i	0 ;;
 }
 {   .mmi
	add	r69=-1,r8				//1: {22:2} 205
	nop.m	0
	nop.i	0 ;;
// Block 13:  Pred: 12 15 11 17     Succ: 6 18     In Loops: L0  -G
// Freq 5.0e+00
 }
.b1_13: 
 {   .mii
  (p1)	sub	r10=r69,r68,1				//0: {23:6} 212
	cmp4.gt.unc	p15,p0=r69,r72			//0: {22:2} 176
  (p1)	add	r9=r67,r69				//0: {23:6} 206
 }
 {   .mmb
	nop.m	0
	nop.m	0
// Branch taken probability 0.00
  (p15)br.cond.dpnt	.b1_6 ;;			//0: {22:2} 177
// Block 18:  Pred: 13     Succ: 6     In Loops: L0  -G
// Freq 4.5e+00
 }
 {   .mii
	add	r8=-2,r9				//0: {23:6} 207
	add	r10=r66,r10 ;;				//0: {23:6} 213
	sxt4	r9=r10					//1: {23:6} 214
 }
 {   .mmi
	add	r8=r65,r8 ;;				//1: {23:6} 208
	shladd	r9=r9,3,r64				//2: {23:6} 215
	sxt4	r8=r8 ;;				//2: {23:6} 209
 }
 {   .mmi
	shladd	r10=r8,3,r63 ;;				//3: {23:6} 210
	ldfd	f6=[r10]				//4: {23:6} 211
	nop.i	0 ;;
 }
 {   .mii
	stfd	[r9]=f6					//10: {23:6} 216
	nop.i	0
	nop.i	0 ;;
// Block 6: lexit epilog ltail  Pred: 99 5 18 13     Succ: 3 1     In Loops: L0  -G
// Freq 5.0e+00
 }
.b1_6: 
 {   .mmi
	add	r53=8,r53				//0: {20:5} 84
	add	r71=8,r71				//0: {20:5} 85
	add	r65=1,r65				//0: {20:5} 87
 }
 {   .mmi
	add	r50=8,r50				//0: {20:5} 83
	add	r66=r66,r24				//0: {20:5} 82
	add	r56=8,r56 ;;				//0: {20:5} 86
 }
 {   .mii
	add	r54=r54,r20				//1: {20:5} 80
	add	r73=r73,r20				//1: {20:5} 78
	add	r52=r52,r20				//1: {20:5} 79
 }
 {   .mmb
	add	r51=r51,r20				//1: {20:5} 81
	cmp4.le.unc	p6,p0=r65,r19			//1: {20:5} 88
// Branch taken probability 1.00
  (p6)	br.cond.dptk	.b1_3 ;;			//1: {20:5} 89
// Block 1: exit epilog  Pred: 0 6     Succ:  -GO
// Freq 1.0e+00
 }
.b1_1: 
 {   .mii
	nop.m	0
	mov	ar.lc=r74 ;;				//0: {24:1} 33
	mov	pr=r40,0x1003e				//1: {24:1} 595
 }
 {   .mib
	nop.m	0
	nop.i	0
	br.ret.sptk.many	b0 ;;			//1: {24:1} 34
 }
	.section	.IA_64.unwind_info,	"a", "progbits"
	.align 8
__udt_memcpy2D??unw:
	data8 0x1000000000002				// length: 16 bytes
							// flags: 0x00
							// version: 1
	string "\x60\x27"				//R3: prologue size 39
	string "\xe2\x00"				//P7: spill_base t/off 0x0
	string "\xe8\x01"				//P7: preds_when t/off 0x1
	string "\xb1\xa8"				//P3: preds_gr r40
	string "\xea\x0e"				//P7: lc_when t/off 0xe
	string "\xb2\xca"				//P3: lc_gr r74
	string "\x61\xf0\x01"				//R3: body size 240
	string "\x81"					//B1: label_state 1
	.section .IA_64.unwind, "ao", "unwind"
	data8 @segrel(memcpy2D??unw#)
	data8 @segrel(memcpy2D??unw#+0x5d0)
	data8 @segrel(__udt_memcpy2D??unw)
	.section .text, "xa", "progbits"
// -- End memcpy2D
	.endp memcpy2D#
	.section .text, "xa", "progbits"
	.align 64
// -- Begin memcpy2D_omp, L_memcpy2D_omp_59__par_loop0_2$0
	.align 64
	.proc memcpy2D_omp#, L_memcpy2D_omp_59__par_loop0_2$0#
// Block 0: entry  Pred:     Succ: 36  -GO
// Freq 1.0e+00
	.global memcpy2D_omp#

memcpy2D_omp:
memcpy2D_omp??unw:
 {   .mmi
	alloc	r41=ar.pfs,8,27,8,8			//0: {57:1} 1542
	add	sp=-128,sp				//0: {57:1} 1543
	mov	r42=b0					//0: {57:1} 648
 }
 {   .mmi
	add	r14=@ltoff($2$2_2_kmpc_loc_struct_pack$0#),gp//0: {57:1} 672
	mov	r44=gp					//0: {57:1} 1453
	sxt4	r10=r37 ;;				//0: {57:1} 670
 }
 {   .mmi
	ld8	r17=[r14]				//1: {57:1} 673
	add	r39=112,sp				//1: {57:1} 1548
	mov	r40=pr					//1: {57:1} 1467
 }
 {   .mmi
	add	r49=104,sp				//1: {57:1} 1547
	add	r38=96,sp				//1: {57:1} 1546
	sxt4	r11=r35 ;;				//1: {57:1} 665
 }
 {   .mii
	nop.m	0
	nop.i	0
	sxt4	r15=r33					//2: {57:1} 660
 }
 {   .mmi
	add	r33=120,sp				//2: {57:1} 1549
	add	r45=88,sp				//2: {57:1} 1545
	sxt4	r16=r32 ;;				//2: {57:1} 657
 }
 {   .mii
	add	r46=80,sp				//3: {57:1} 1544
	mov	r43=ar.lc				//3: {57:1} 649
	nop.i	0 ;;
 }
 {   .mmi
	st8	[r46]=r16				//4: {57:1} 658
	st8	[r45]=r15				//4: {57:1} 661
	nop.i	0 ;;
 }
 {   .mmi
	st8	[r38]=r34				//5: {57:1} 663
	st8	[r49]=r11				//5: {57:1} 666
	nop.i	0 ;;
 }
 {   .mmi
	st8	[r39]=r36				//6: {57:1} 668
	st8	[r33]=r10				//6: {57:1} 671
	nop.i	0 ;;
 }
 {   .mii
	alloc	r31=ar.pfs,8,10,1,8			//7: {57:1} 1537
	mov	r50=r17					//7: {57:1} 674
	add	r32=40,sp ;;				//7: {57:1} 677
// Block 36:  Pred: 0     Succ: 1  -GO
// Freq 1.0e+00
 }
 {   .mib
	nop.m	0
	nop.i	0
	br.call.sptk	b0=__kmpc_global_thread_num# ;;//8: {57:1} 675
// Block 1:  Pred: 36     Succ: 2  -GO
// Freq 1.0e+00
 }
 {   .mii
	st4	[r32]=r8				//10: {57:1} 678
	mov	gp=r44					//10: {57:1} 1445
	nop.i	0 ;;
 }
 {   .mmi
	add	r18=@ltoff($2$2_2_kmpc_loc_struct_pack$1#),gp ;;//11: {59:5} 679
	ld8	r47=[r18]				//12: {59:5} 680
	nop.i	0 ;;
 }
 {   .mib
	mov	r50=r47					//13: {59:5} 681
	nop.i	0
	br.call.sptk	b0=__kmpc_ok_to_fork# ;;	//13: {59:5} 682
// Block 2:  Pred: 1     Succ: 3 4  -GO
// Freq 1.0e+00
 }
 {   .mmi
	alloc	r31=ar.pfs,8,27,8,8			//15: {59:5} 1536
	add	r2=6,r0					//15: {59:5} 690
	mov	gp=r44					//15: {59:5} 1446
 }
 {   .mii
	add	r9=16,sp				//15: {59:5} 693
	cmp4.eq.unc	p6,p0=r8,r0			//15: {59:5} 684
	nop.i	0 ;;
 }
 {   .mib
	add	r24=@ltoff(@fptr(L_memcpy2D_omp_59__par_loop0_2$0#)),gp//16: {59:5} 691
	nop.i	0
// Branch taken probability 0.50
  (p6)	br.cond.dptk	.b2_3 ;;			//16: {59:5} 685
// Block 4:  Pred: 2     Succ: 37  -GO
// Freq 5.0e-01
 }
 {   .mmi
	alloc	r31=ar.pfs,8,10,8,8			//0: {59:5} 1533
	st8	[r9]=r49				//0: {59:5} 694
	mov	r57=r33					//0: {59:5} 702
 }
 {   .mmi
	ld8	r52=[r24]				//0: {59:5} 692
	mov	r55=r39					//0: {59:5} 700
	mov	r56=r38 ;;				//0: {59:5} 701
 }
 {   .mii
	mov	r51=r2					//1: {59:5} 696
	mov	r54=r45					//1: {59:5} 699
	mov	r53=r46					//1: {59:5} 698
 }
 {   .mmb
	mov	r50=r47					//1: {59:5} 695
	nop.m	0
	br.call.sptk	b0=__kmpc_fork_call# ;;		//1: {59:5} 703
// Block 37:  Pred: 4     Succ: 7  -GO
// Freq 5.0e-01
 }
 {   .mib
	alloc	r31=ar.pfs,8,27,8,8			//3: {59:5} 1534
	mov	gp=r44					//3: {59:5} 1447
	br.cond.sptk	.b2_7 ;;			//3: {59:5} 1269
// Block 3:  Pred: 2     Succ: 5  -GO
// Freq 5.0e-01
 }
.b2_3: 
 {   .mmi
	alloc	r31=ar.pfs,8,10,8,8			//0: {59:5} 1532
	ld4	r51=[r32]				//0: {59:5} 686
	mov	r50=r47 ;;				//0: {59:5} 687
 }
 {   .mib
	nop.m	0
	nop.i	0
	br.call.sptk	b0=__kmpc_serialized_parallel# ;;//1: {59:5} 689
// Block 5:  Pred: 3     Succ: 6  -GO
// Freq 5.0e-01
 }
 {   .mmi
	mov	r56=r33					//3: {59:5} 711
	mov	r55=r38					//3: {59:5} 710
	mov	gp=r44					//3: {59:5} 1448
 }
 {   .mmi
	mov	r54=r39					//3: {59:5} 709
	mov	r53=r45					//3: {59:5} 708
	mov	r57=r49 ;;				//3: {59:5} 712
 }
 {   .mii
	mov	r50=r32					//4: {59:5} 705
	add	r51=@gprel(___kmpv_zeromemcpy2D_omp_0#),gp//4: {59:5} 704
	mov	r52=r46					//4: {59:5} 707
 }
 {   .mmb
	nop.m	0
	nop.m	0
	br.call.sptk.many	b0=L_memcpy2D_omp_59__par_loop0_2$0# ;;//4: {59:5} 713
// Block 6:  Pred: 5     Succ: 38  -GO
// Freq 5.0e-01
 }
 {   .mib
	ld4	r51=[r32]				//6: {59:5} 714
	mov	r50=r47					//6: {59:5} 715
	br.call.sptk	b0=__kmpc_end_serialized_parallel# ;;//6: {59:5} 717
// Block 38:  Pred: 6     Succ: 7  -GO
// Freq 5.0e-01
 }
 {   .mii
	alloc	r31=ar.pfs,8,27,8,8			//8: {59:5} 1530
	mov	gp=r44					//8: {59:5} 1449
	nop.i	0 ;;
// Block 7: exit modified  Pred: 38 37     Succ:  -GO
// Freq 1.0e+00
 }
.b2_7: 
 {   .mii
	add	sp=128,sp				//0: {63:1} 1550
	mov	ar.pfs=r41 ;;				//0: {63:1} 719
	mov	ar.lc=r43 ;;				//1: {63:1} 720
 }
 {   .mii
	nop.m	0
	mov	b0=r42 ;;				//2: {63:1} 718
	mov	pr=r40,0x1003e				//3: {63:1} 1469
 }
 {   .mib
	nop.m	0
	nop.i	0
	br.ret.sptk.many	b0 ;;			//3: {63:1} 721
 }
 {   .bbb
	nop.b	0					//3: {63:1} 1677
	nop.b	0					//3: {63:1} 1678
	nop.b	0 ;;					//3: {63:1} 1679
 }
 {   .bbb
	nop.b	0					//3: {63:1} 1680
	nop.b	0					//3: {63:1} 1681
	nop.b	0 ;;					//3: {63:1} 1682
// Block 8: entry  Pred:     Succ: 39  -GO
// Freq 1.0e+00
 }
	.global L_memcpy2D_omp_59__par_loop0_2$0#

L_memcpy2D_omp_59__par_loop0_2$0:
 {   .mmi
	alloc	r41=ar.pfs,8,27,8,8			//0: {59:5} 1551
	ld4	r51=[r39]				//0: {59:5} 746
	mov	r42=b0					//0: {59:5} 723
 }
 {   .mmi
	add	r20=@ltoff($2$2_2_kmpc_loc_struct_pack$1#),gp//0: {59:5} 764
	ld4	r55=[r35]				//0: {59:5} 752
	add	sp=-128,sp ;;				//0: {59:5} 1552
 }
 {   .mmi
	ld8	r66=[r20]				//1: {59:5} 765
	ld8	r61=[r37]				//1: {59:5} 750
	mov	r40=pr					//1: {59:5} 1466
 }
 {   .mmi
	add	r28=104,sp				//1: {59:5} 1558
	mov	r44=gp					//1: {59:5} 1452
	sxt4	r47=r51 ;;				//1: {59:5} 747
 }
 {   .mmi
	st8	[r28]=r35				//2: {59:5} 736
	ld4	r50=[r38]				//2: {59:5} 749
	mov	r43=ar.lc				//2: {59:5} 724
 }
 {   .mmi
	add	r2=128,sp				//2: {59:5} 1556
	ld4	r46=[r34]				//2: {59:5} 753
	add	r29=136,sp ;;				//2: {59:5} 1557
 }
 {   .mmi
	st8	[r29]=r39				//3: {59:5} 744
	ld8	r62=[r36]				//3: {59:5} 751
	add	r3=96,sp				//3: {59:5} 1555
 }
 {   .mmi
	st8	[r2]=r38				//3: {59:5} 742
	add	r9=112,sp				//3: {59:5} 1553
	add	r8=120,sp ;;				//3: {59:5} 1554
 }
 {   .mmi
	st8	[r3]=r34				//4: {59:5} 734
	st8	[r8]=r37				//4: {59:5} 740
	add	r15=16,sp				//4: {59:5} 767
 }
 {   .mmi
	add	r24=28,sp				//4: {59:5} 759
	add	r33=32,sp				//4: {59:5} 756
	add	r17=24,sp ;;				//4: {59:5} 762
 }
 {   .mmi
	st8	[r9]=r36				//5: {59:5} 738
	ld4	r65=[r32]				//5: {59:5} 745
	mov	r73=r17					//5: {59:5} 777
 }
 {   .mmi
	st4	[r24]=r0				//5: {59:5} 760
	add	r26=1,r0				//5: {59:5} 761
	add	r52=36,sp ;;				//5: {59:5} 754
 }
 {   .mmi
	st4	[r52]=r0				//6: {59:5} 755
	add	r16=34,r0				//6: {59:5} 766
	mov	r68=r65					//6: {59:5} 772
 }
 {   .mmi
	st8	[r15]=r26				//6: {59:5} 768
	mov	r71=r52					//6: {59:5} 775
	add	r19=7,r0 ;;				//6: {59:5} 757
 }
 {   .mmi
	st4	[r33]=r19				//7: {59:5} 758
	st4	[r17]=r26				//7: {59:5} 763
	mov	r69=r16					//7: {59:5} 773
 }
 {   .mmi
	mov	r70=r24					//7: {59:5} 774
	mov	r72=r33					//7: {59:5} 776
	mov	r74=r26 ;;				//7: {59:5} 778
 }
 {   .mii
	add	r54=1,r0				//8: {59:5} 789
	shladd	r48=r47,3,r0				//8: {59:5} 748
	mov	r67=r66					//8: {59:5} 771
 }
 {   .mmb
	add	r49=0,r0				//8: {59:5} 769
	add	r45=0,r0				//8: {59:5} 770
// Block 39:  Pred: 8     Succ: 9  -GO
// Freq 1.0e+00
	br.call.sptk	b0=__kmpc_for_static_init_4# ;;//8: {59:5} 779
// Block 9:  Pred: 39     Succ: 10 11  -GO
// Freq 1.0e+00
 }
 {   .mmi
	setf.sig	f8=r55				//10: {59:5} 791
	ld4	r10=[r33]				//10: {59:5} 781
	sxt4	r24=r55					//10: {20:5} 798
 }
 {   .mmi
	ld4	r11=[r52]				//10: {59:5} 780
	mov	gp=r44					//10: {59:5} 1450
	sub	r9=r47,r51 ;;				//10: {20:5} 814
 }
 {   .mii
	cmp4.ge.unc	p0,p15=7,r10			//11: {59:5} 1128
	sxt4	r8=r11					//11: {59:5} 797
	cmp4.lt.unc	p12,p0=7,r11			//11: {59:5} 782
 }
 {   .mmb
	cmp.lt.unc	p14,p13=r24,r0			//11: {20:5} 1126
	add	r3=2,r9					//11: {22:2} 823
// Branch taken probability 0.50
  (p12)br.cond.dptk	.b2_10 ;;			//11: {59:5} 783
// Block 11: prolog modified collapsed  Pred: 9     Succ: 14  -GO
// Freq 5.0e-01
 }
 {   .mmi
	setf.sig	f7=r11				//0: {59:5} 790
  (p15)add	r10=7,r0				//0: {59:5} 831
	sxt4	r2=r50					//0: {20:5} 799
 }
 {   .mmi
  (p14)add	r30=0,r0				//0: {20:5} 806
  (p13)add	r30=1,r0				//0: {20:5} 807
	sxt4	r29=r3 ;;				//0: {22:2} 828
 }
 {   .mmi
	add	r27=1,r2				//1: {20:5} 800
	cmp.eq.unc	p10,p9=r30,r0			//1: {20:5} 1124
	sxt4	r59=r50					//1: {59:5} 795
 }
 {   .mmi
	add	r28=3,r2				//1: {20:5} 802
	shladd	r58=r29,3,r0				//1: {22:2} 830
	sxt4	r26=r10 ;;				//1: {59:5} 796
 }
 {   .mmi
	shladd	r56=r27,3,r0				//2: {20:5} 815
	shladd	r60=r28,3,r0				//2: {20:5} 816
  (p10)add	r24=7,r24				//2: {20:5} 811
 }
 {   .mii
	add	r57=0,r0				//2: {22:2} 822
	sub	r25=r26,r8 ;;				//2: {59:5} 803
	extr	r15=r24,3,61				//3: {20:5} 813
 }
 {   .mmi
	add	r53=1,r25 ;;				//3: {59:5} 808
	cmp.lt.unc	p8,p7=r15,r0			//4: {22:2} 1120
	add	r19=1,r15 ;;				//4: {22:2} 821
 }
 {   .mii
  (p7)	add	r20=1,r0				//5: {22:2} 820
  (p8)	add	r20=0,r0				//5: {22:2} 819
	nop.i	0 ;;
 }
 {   .mfi
	cmp.eq.unc	p6,p15=r20,r0			//6: {22:2} 1122
	xma.l	f6=f7,f8,f0				//6: {59:5} 792
	nop.i	0 ;;
 }
 {   .mmi
  (p15)mov	r19=r15 ;;				//7: {22:2} 827
	nop.m	0
	extr	r27=r19,1,63 ;;				//8: {22:2} 829
 }
 {   .mmi
	getf.sig	r64=f6 ;;			//10: {59:5} 793
	add	r63=7,r64				//15: {59:5} 794
	nop.i	0
 }
 {   .bbb
	nop.b	0					//15: {59:5} 1675
	nop.b	0
	nop.b	0 ;;
// Block 14: lentry collapsed  Pred: 15 11     Succ: 15 77     In Loops: L0  -G
// Freq 8.0e+00
 }
.b2_14: 
 {   .mii
	mov	r11=r47					//0: {20:5} 848
	cmp4.lt.unc	p14,p13=r64,r0			//0: {62:2} 1155
	cmp4.gt.unc	p12,p0=1,r46			//0: {20:5} 857
 }
 {   .mmi
	add	r26=1,r0 ;;				//0: {20:5} 847
  (p14)add	r14=0,r0				//1: {62:2} 834
  (p13)add	r14=1,r0 ;;				//1: {62:2} 835
 }
 {   .mmi
	cmp4.eq.unc	p10,p9=r14,r0 ;;		//2: {62:2} 1153
  (p10)mov	r2=r63					//3: {62:2} 838
  (p9)	mov	r2=r64 ;;				//3: {62:2} 839
 }
 {   .mii
	nop.m	0
	extr	r30=r2,3,29 ;;				//4: {62:2} 840
	sxt4	r29=r30 ;;				//5: {62:2} 841
 }
 {   .mii
	shladd	r30=r29,3,r62				//6: {62:2} 843
	shladd	r28=r29,3,r61				//6: {62:2} 842
	nop.i	0 ;;
 }
 {   .mii
	add	r24=r60,r30				//7: {20:5} 855
	shladd	r29=r59,3,r30				//7: {62:2} 844
	add	r17=r28,r58				//7: {20:5} 849
 }
 {   .mmb
	add	r9=r57,r28				//7: {20:5} 852
	add	r10=r56,r30				//7: {20:5} 854
	nop.b	0 ;;
 }
 {   .mmi
	add	r25=-8,r17				//8: {20:5} 850
	add	r20=-16,r17				//8: {20:5} 851
	mov	r3=r29					//8: {62:2} 845
 }
 {   .mmi
	add	r24=-24,r24				//8: {20:5} 856
	add	r52=-8,r9				//8: {20:5} 853
	add	r8=8,r29 ;;				//8: {62:2} 846
 }
 {   .mib
	nop.m	0
	nop.i	0
// Branch taken probability 0.00
  (p12)br.cond.dpnt	.b2_15 ;;			//9: {20:5} 858
// Block 77: prolog modified  Pred: 14     Succ: 16     In Loops: L0  -GO
// Freq 8.0e+00
 }
 {   .mmi
	mov	r70=r30					//0: {62:2} 1511
	mov	r74=r26					//0: {20:5} 1508
	mov	r69=r27					//0: {22:2} 1517
 }
 {   .mmi
	mov	r68=r11					//0: {20:5} 1505
	mov	r73=r29					//0: {62:2} 1502
	mov	r67=r28 ;;				//0: {62:2} 1514
 }
 {   .mii
	mov	r71=r15					//1: {22:2} 1499
	nop.i	0
	nop.i	0
 }
 {   .bbb
	nop.b	0					//1: {22:2} 1676
	nop.b	0
	nop.b	0 ;;
// Block 16: lentry  Pred: 77 19     Succ: 17 18     In Loops: L1 L0  -GO
// Freq 4.0e+01
 }
.b2_16: 
 {   .mii
	add	r18=8,r52				//0: {22:2} 870
	add	r72=8,r10				//0: {22:2} 864
	cmp.lt.unc	p2,p0=16,r71			//0: {22:2} 865
 }
 {   .mmb
	mov	r17=r73					//0: {22:2} 871
	cmp.gt.unc	p7,p0=1,r71			//0: {22:2} 872
// Branch taken probability 0.50
  (p2)	br.cond.dptk	.b2_17 ;;			//0: {22:2} 866
// Block 18:  Pred: 16     Succ: 19 20     In Loops: L1 L0  -GO
// Freq 4.0e+01
 }
 {   .mib
	nop.m	0
	nop.i	0
// Branch taken probability 0.00
  (p7)	br.cond.dpnt	.b2_19 ;;			//0: {22:2} 873
// Block 20: prolog  Pred: 18     Succ: 21     In Loops: L1 L0  -O
// Freq 5.0e-01
 }
 {   .mmi
	lfetch.nt1	[r10]				//0: {22:2} 887
	add	r30=256,r10				//0: {22:2} 890
	mov	pr.rot=0x10000				//0: {22:2} 1009
 }
 {   .mmi
	add	r29=384,r10				//0: {22:2} 892
	add	r28=512,r10				//0: {22:2} 894
	add	r2=128,r10 ;;				//0: {22:2} 888
 }
 {   .mii
	lfetch.nt1	[r2]				//1: {22:2} 889
	mov	ar.ec=2					//1: {22:2} 1011
	add	r26=-1,r71				//1: {22:2} 899
 }
 {   .mmb
	add	r27=640,r10				//1: {22:2} 896
	add	r19=1192,r10				//1: {22:2} 898
	clrrrb.pr	 ;;				//1: {22:2} 1010
 }
 {   .mii
	lfetch.nt1	[r27]				//2: {22:2} 897
	mov	ar.lc=r26				//2: {22:2} 900
	nop.i	0 ;;
 }
 {   .mmi
	lfetch.nt1	[r30] ;;			//3: {22:2} 891
	lfetch.nt1	[r29]				//4: {22:2} 893
	nop.i	0 ;;
 }
 {   .mii
	lfetch.nt1	[r28]				//5: {22:2} 895
	nop.i	0
	nop.i	0 ;;
// Block 21: lentry lexit ltail collapsed pipelined  Pred: 21 20     Succ: 21 141     In Loops: L4 L1 L0  -S
// Freq 1.0e+02
 }
.b2_21: 
 {   .mii
  (p16)lfetch.nt1	[r19],8				//0: {22:2} 903
	nop.i	0
	nop.i	0
 }
 {   .mmb
  (p17)st8	[r18]=r33,8				//1: {23:6} 902
  (p16)ld8	r32=[r17],8				//0: {23:6} 901
// Branch taken probability 1.00
	br.ctop.sptk	.b2_21 ;;			//0: {22:2} 907
// Block 141:  Pred: 21     Succ: 19     In Loops: L1 L0  -O
// Freq 0.0e+00
 }
 {   .mib
	nop.m	0
	nop.i	0
	br.cond.sptk	.b2_19 ;;			//0: {22:2} 1559
// Block 17:  Pred: 16     Succ: 22 34     In Loops: L1 L0  -G
// Freq 3.6e+01
 }
.b2_17: 
 {   .mii
	add	r16=-8,r10				//0: {22:2} 920
	add	r29=1,r0				//0: {22:2} 867
	cmp.le.unc	p7,p0=1,r69			//0: {22:2} 868
 }
 {   .mmb
	add	r11=136,r10				//0: {22:2} 909
	add	r14=264,r10				//0: {22:2} 911
// Branch taken probability 0.50
  (p7)	br.cond.dptk.many	.b2_22 ;;		//0: {22:2} 869
// Block 34:  Pred: 17     Succ: 131 122     In Loops: L1 L0  -G
// Freq 1.8e+01
 }
 {   .mii
	add	r16=16,r52				//0: {22:2} 1308
	cmp4.eq.unc	p8,p0=r49,r0			//0: {23:6} 993
	mov	r11=r9					//0: {22:2} 1307
 }
 {   .mmb
	mov	r15=r3					//0: {22:2} 1309
	mov	r10=r8					//0: {22:2} 930
// Branch taken probability 0.50
  (p8)	br.cond.dptk	.b2_131 ;;			//0: {23:6} 994
// Block 122:  Pred: 34     Succ: 25 139     In Loops: L1 L0  -GO
// Freq 9.0e+00
 }
 {   .mii
	add	r2=1,r0					//0: {22:2} 928
	cmp.gt.unc	p15,p0=1,r69			//0: {22:2} 933
	nop.i	0
 }
 {   .mbb
	nop.m	0
// Branch taken probability 0.00
  (p15)br.cond.dpnt	.b2_25				//0: {22:2} 1539
// Block 139:  Pred: 122     Succ: 32     In Loops: L1 L0  -
// Freq 9.0e+00
	br.cond.sptk	.b2_32 ;;			//0: {23:6} 1538
// Block 131:  Pred: 34     Succ: 25 140     In Loops: L1 L0  -GO
// Freq 9.0e+00
 }
.b2_131: 
 {   .mii
	mov	r27=r24					//0: {22:2} 938
	mov	r30=r25					//0: {22:2} 937
	mov	r18=r20					//0: {22:2} 936
 }
 {   .mmb
	add	r28=1,r0				//0: {22:2} 1314
	cmp.gt.unc	p14,p0=1,r69			//0: {22:2} 1315
// Branch taken probability 0.00
  (p14)br.cond.dpnt	.b2_25 ;;			//0: {22:2} 1541
// Block 140:  Pred: 131     Succ: 33     In Loops: L1 L0  -O
// Freq 9.0e+00
 }
 {   .mib
	nop.m	0
	nop.i	0
	br.cond.sptk.many	.b2_33 ;;		//0: {22:2} 1540
// Block 22: collapsed  Pred: 17     Succ: 23 24     In Loops: L1 L0  -GO
// Freq 1.8e+01
 }
.b2_22: 
 {   .mmi
	lfetch.nt1	[r11]				//0: {22:2} 910
	add	r17=648,r10				//0: {22:2} 917
	and	r15=15,r16				//0: {22:2} 921
 }
 {   .mmi
	add	r45=2392,r10				//0: {22:2} 919
	add	r18=520,r10				//0: {22:2} 915
	add	r10=392,r10 ;;				//0: {22:2} 913
 }
 {   .mmi
	lfetch.nt1	[r18]				//1: {22:2} 916
	cmp.eq.unc	p13,p12=r15,r0			//1: {22:2} 1267
	mov	r15=r3					//1: {22:2} 929
 }
 {   .mmi
	mov	r30=r25					//1: {22:2} 1311
	mov	r27=r24					//1: {22:2} 1312
	mov	r18=r20 ;;				//1: {22:2} 1313
 }
 {   .mmi
	lfetch.nt1	[r17]				//2: {22:2} 918
	add	r2=1,r0					//2: {22:2} 1316
  (p12)add	r49=1,r0				//2: {22:2} 925
 }
 {   .mmi
	add	r28=1,r0				//2: {22:2} 935
	cmp.gt.unc	p15,p0=1,r69			//2: {22:2} 1317
  (p13)add	r49=0,r0 ;;				//2: {22:2} 924
 }
 {   .mmi
	lfetch.nt1	[r10]				//3: {22:2} 914
	add	r16=16,r52				//3: {22:2} 932
	cmp4.ne.unc	p10,p9=r49,r0			//3: {23:6} 926
 }
 {   .mii
	mov	r11=r9					//3: {22:2} 931
	mov	r10=r8 ;;				//3: {22:2} 1310
  (p9)	cmp.gt.unc	p14,p0=1,r69			//4: {22:2} 939
 }
 {   .mmi
	lfetch.nt1	[r72] ;;			//4: {22:2} 908
	lfetch.nt1	[r14]				//5: {22:2} 912
	nop.i	0
 }
 {   .mbb
	nop.m	0
// Branch taken probability 0.50
  (p10)br.cond.dptk.many	.b2_23			//5: {23:6} 927
// Block 24:  Pred: 22     Succ: 25 33     In Loops: L1 L0  -G
// Freq 3.1e+01
// Branch taken probability 0.00
  (p14)br.cond.dpnt	.b2_25 ;;			//5: {22:2} 940
// Block 33: prolog  Pred: 24 140     Succ: 26     In Loops: L1 L0  -O
// Freq 5.0e-01
 }
.b2_33: 
 {   .mmi
	add	r21=48,sp				//0: {20:5} 1523
	add	r22=56,sp				//0: {20:5} 1524
	mov	pr.rot=0x10000				//0: {22:2} 1034
 }
 {   .mmi
	add	r23=64,sp				//0: {20:5} 1525
	mov	r33=r28					//0: {22:2} 1032
	add	r26=-1,r69 ;;				//0: {22:2} 990
 }
 {   .mii
	st8	[r21]=r3				//1: {20:5} 1476
	mov	ar.ec=2					//1: {22:2} 1036
	sxt4	r19=r26					//1: {22:2} 991
 }
 {   .mmb
	st8	[r22]=r8				//1: {20:5} 1478
	mov	r8=r27					//1: {22:2} 1485
	clrrrb.pr	 ;;				//1: {22:2} 1035
 }
 {   .mii
	st8	[r23]=r9				//2: {20:5} 1480
	mov	ar.lc=r19				//2: {22:2} 992
	mov	r9=r30					//2: {22:2} 1482
 }
 {   .mmb
	mov	r3=r18					//2: {22:2} 1488
	nop.m	0
	nop.b	0 ;;
// Block 26: lentry lexit ltail collapsed pipelined  Pred: 26 33     Succ: 26 27     In Loops: L3 L1 L0  -S
// Freq 1.0e+02
 }
.b2_26: 
 {   .mmi
  (p17)stfd	[r9]=f33,16				//7: {23:6} 948
	nop.m	0
	nop.i	0
 }
 {   .mmi
	nop.m	0
  (p16)ldfpd	f35,f32=[r8],16				//0: {23:6} 944
	nop.i	0 ;;
 }
 {   .mii
  (p16)stfd	[r3]=f35,16				//6: {23:6} 947
  (p16)add	r32=1,r33				//6: {22:2} 954
	nop.i	0
 }
 {   .mmb
  (p16)lfetch.nt1	[r45],16			//6: {22:2} 949
	nop.m	0
// Branch taken probability 1.00
	br.ctop.sptk	.b2_26 ;;			//6: {22:2} 955
// Block 27: epilog  Pred: 26     Succ: 25     In Loops: L1 L0  -O
// Freq 3.6e+01
 }
 {   .mii
	add	r22=56,sp				//0: {20:5} 1527
	mov	r28=r34					//0: {22:2} 1033
	add	r23=64,sp				//0: {20:5} 1526
 }
 {   .mmi
	add	r21=48,sp ;;				//0: {20:5} 1528
	ld8	r9=[r23]				//1: {20:5} 1495
	shladd	r27=r28,1,r0				//1: {22:2} 956
 }
 {   .mmi
	ld8	r8=[r22] ;;				//1: {20:5} 1493
	ld8	r3=[r21]				//2: {20:5} 1491
	add	r29=-1,r27				//2: {22:2} 957
 }
 {   .mib
	nop.m	0
	nop.i	0
	br.cond.sptk.many	.b2_25 ;;		//2: {22:2} 1272
// Block 23:  Pred: 22     Succ: 25 32     In Loops: L1 L0  -G
// Freq 3.1e+01
 }
.b2_23: 
 {   .mib
	nop.m	0
	nop.i	0
// Branch taken probability 0.00
  (p15)br.cond.dpnt	.b2_25 ;;			//0: {22:2} 934
// Block 32: prolog  Pred: 23 139     Succ: 28     In Loops: L1 L0  -O
// Freq 5.0e-01
 }
.b2_32: 
 {   .mii
	mov	r33=r2					//0: {22:2} 1058
	mov	pr.rot=0x10000				//0: {22:2} 1060
	add	r29=-1,r69				//0: {22:2} 988
 }
 {   .mmb
	nop.m	0
	nop.m	0
	clrrrb.pr	 ;;				//0: {22:2} 1061
 }
 {   .mii
	nop.m	0
	mov	ar.lc=r29 ;;				//1: {22:2} 989
	mov	ar.ec=2 ;;				//2: {22:2} 1062
// Block 28: lentry lexit ltail collapsed pipelined  Pred: 28 32     Succ: 28 29     In Loops: L2 L1 L0  -S
// Freq 1.0e+02
 }
.b2_28: 
 {   .mmi
  (p17)st8	[r16]=r36,16				//2: {23:6} 961
	nop.m	0
	nop.i	0
 }
 {   .mmi
	nop.m	0
  (p16)ld8	r34=[r15],16				//0: {23:6} 958
	nop.i	0 ;;
 }
 {   .mii
  (p16)lfetch.nt1	[r45],16			//1: {22:2} 962
  (p16)add	r32=1,r33				//1: {22:2} 968
	nop.i	0
 }
 {   .mmb
  (p16)st8	[r11]=r34,16				//1: {23:6} 959
  (p16)ld8	r35=[r10],16				//1: {23:6} 960
// Branch taken probability 1.00
	br.ctop.sptk	.b2_28 ;;			//1: {22:2} 969
// Block 29: epilog  Pred: 28     Succ: 25     In Loops: L1 L0  -O
// Freq 3.6e+01
 }
 {   .mmi
	mov	r2=r34 ;;				//0: {22:2} 1059
	shladd	r30=r2,1,r0				//1: {22:2} 970
	nop.i	0 ;;
 }
 {   .mii
	add	r29=-1,r30				//2: {22:2} 971
	nop.i	0
	nop.i	0 ;;
// Block 25:  Pred: 23 24 27 29 122 131     Succ: 19 30     In Loops: L1 L0  -G
// Freq 4.0e+01
 }
.b2_25: 
 {   .mii
  (p2)	sub	r30=r29,r51				//0: {23:6} 978
	sxt4	r28=r29					//0: {22:2} 941
  (p2)	add	r27=r50,r29 ;;				//0: {23:6} 972
 }
 {   .mii
  (p2)	add	r26=r68,r30				//1: {23:6} 979
	cmp.lt.unc	p6,p0=r71,r28			//1: {22:2} 942
  (p2)	add	r19=r74,r27				//1: {23:6} 973
 }
 {   .mmb
	nop.m	0
	nop.m	0
// Branch taken probability 0.00
  (p6)	br.cond.dpnt	.b2_19 ;;			//1: {22:2} 943
// Block 30:  Pred: 25     Succ: 19     In Loops: L1 L0  -G
// Freq 3.6e+01
 }
 {   .mii
	nop.m	0
	sxt4	r18=r19					//0: {23:6} 974
	sxt4	r17=r26 ;;				//0: {23:6} 980
 }
 {   .mii
	shladd	r16=r18,3,r70				//1: {23:6} 975
	shladd	r15=r17,3,r67 ;;			//1: {23:6} 981
	add	r14=-8,r15				//2: {23:6} 982
 }
 {   .mmi
	add	r11=-16,r16 ;;				//2: {23:6} 976
	ld8	r10=[r11]				//3: {23:6} 977
	nop.i	0 ;;
 }
 {   .mii
	st8	[r14]=r10				//4: {23:6} 983
	nop.i	0
	nop.i	0 ;;
// Block 19: lexit epilog ltail  Pred: 141 18 30 25     Succ: 16 78     In Loops: L1 L0  -G
// Freq 4.0e+01
 }
.b2_19: 
 {   .mmi
	add	r24=8,r24				//0: {20:5} 883
	add	r8=8,r8					//0: {20:5} 880
	add	r74=1,r74				//0: {20:5} 884
 }
 {   .mmi
	add	r73=8,r73				//0: {20:5} 881
	add	r3=8,r3					//0: {20:5} 879
	mov	r10=r72 ;;				//0: {20:5} 882
 }
 {   .mmi
	add	r9=r9,r48				//1: {20:5} 875
	add	r20=r20,r48				//1: {20:5} 876
	add	r68=r68,r47				//1: {20:5} 878
 }
 {   .mmi
	add	r25=r25,r48				//1: {20:5} 877
	cmp4.le.unc	p6,p0=r74,r46			//1: {20:5} 885
	add	r52=r52,r48 ;;				//1: {20:5} 874
 }
 {   .mib
	nop.m	0
	nop.i	0
// Branch taken probability 1.00
  (p6)	br.cond.dptk	.b2_16 ;;			//2: {20:5} 886
// Block 78: epilog  Pred: 19     Succ: 15     In Loops: L0  -GO
// Freq 2.0e-01
 }
 {   .mii
	mov	r27=r69					//0: {22:2} 1522
	mov	r15=r71					//0: {22:2} 1520
	nop.i	0 ;;
// Block 15: lexit ltail  Pred: 14 78     Succ: 14 10     In Loops: L0  -G
// Freq 8.0e+00
 }
.b2_15: 
 {   .mii
	add	r63=r63,r55				//0: {59:5} 860
	add	r54=1,r54				//0: {59:5} 861
	add	r64=r64,r55 ;;				//0: {59:5} 859
 }
 {   .mib
	cmp.le.unc	p8,p0=r54,r53			//1: {59:5} 862
	nop.i	0
// Branch taken probability 1.00
  (p8)	br.cond.dptk.many	.b2_14 ;;		//1: {59:5} 863
// Block 10: epilog  Pred: 15 9     Succ: 31  -GO
// Freq 0.0e+00
 }
.b2_10: 
 {   .mib
	mov	r67=r66					//0: {59:5} 784
	mov	r68=r65					//0: {59:5} 785
	br.call.sptk	b0=__kmpc_for_static_fini# ;;	//0: {59:5} 786
// Block 31: exit  Pred: 10     Succ:  -GO
// Freq 1.0e+00
 }
 {   .mii
	mov	gp=r44					//1: {59:5} 1451
	mov	pr=r40,0x1003e				//1: {59:5} 1468
	add	sp=128,sp ;;				//1: {59:5} 1560
 }
 {   .mii
	nop.m	0
	mov	ar.lc=r43 ;;				//2: {59:5} 986
	mov	b0=r42 ;;				//3: {59:5} 984
 }
 {   .mib
	nop.m	0
	mov	ar.pfs=r41				//4: {59:5} 985
	br.ret.sptk.many	b0 ;;			//4: {59:5} 987
 }
	.section	.IA_64.unwind_info,	"a", "progbits"
	.align 8
__udt_memcpy2D_omp??unw:
	data8 0x1000000000008				// length: 64 bytes
							// flags: 0x00
							// version: 1
	string "\x60\x21"				//R3: prologue size 33
	string "\xe0\x01\x08"				//P7: mem_stack_f t/off 0x1 size 128
	string "\xe6\x00"				//P7: pfs_when t/off 0x0
	string "\xb1\x29"				//P3: pfs_gr r41
	string "\xe2\x10"				//P7: spill_base t/off 0x10
	string "\xe8\x08"				//P7: preds_when t/off 0x8
	string "\xb1\xa8"				//P3: preds_gr r40
	string "\xe4\x02"				//P7: rp_when t/off 0x2
	string "\xb0\xaa"				//P3: rp_gr r42
	string "\xea\x13"				//P7: lc_when t/off 0x13
	string "\xb2\xab"				//P3: lc_gr r43
	string "\x61\xcb\x00"				//R3: body size 75
	string "\x81"					//B1: label_state 1
	string "\xc0\x0e"				//B2: epilog time 14 ecount 0
	string "\x60\x35"				//R3: prologue size 53
	string "\xe0\x05\x08"				//P7: mem_stack_f t/off 0x5 size 128
	string "\xe6\x00"				//P7: pfs_when t/off 0x0
	string "\xb1\x29"				//P3: pfs_gr r41
	string "\xe2\x10"				//P7: spill_base t/off 0x10
	string "\xe8\x08"				//P7: preds_when t/off 0x8
	string "\xb1\xa8"				//P3: preds_gr r40
	string "\xe4\x02"				//P7: rp_when t/off 0x2
	string "\xb0\xaa"				//P3: rp_gr r42
	string "\xea\x0e"				//P7: lc_when t/off 0xe
	string "\xb2\xab"				//P3: lc_gr r43
	string "\x61\xbc\x02"				//R3: body size 316
	string "\xa1"					//B1: copy_state 1
	string "\xc0\x06"				//B2: epilog time 6 ecount 0
	string "\x00\x00\x00\x00\x00\x00"
	.section .IA_64.unwind, "ao", "unwind"
	data8 @segrel(memcpy2D_omp??unw#)
	data8 @segrel(memcpy2D_omp??unw#+0x9f0)
	data8 @segrel(__udt_memcpy2D_omp??unw)
	.section .data, "wa", "progbits"
	.align 16
$2$2_2_kmpc_loc_struct_pack$0:
	data4.ua 0	// s32
	data4.ua 2	// s32
	data4.ua 0	// s32
	data4.ua 0	// s32
	data8.ua $2$2_2__kmpc_loc_pack$0#	// p64
	.skip 8	// pad
$2$2_2_kmpc_loc_struct_pack$1:
	data4.ua 0	// s32
	data4.ua 2	// s32
	data4.ua 0	// s32
	data4.ua 0	// s32
	data8.ua $2$2_2__kmpc_loc_pack$1#	// p64
$2$2_2__kmpc_loc_pack$0:
	data1 59	// s8
	data1 47	// s8
	data1 104	// s8
	data1 111	// s8
	data1 109	// s8
	data1 101	// s8
	data1 95	// s8
	data1 110	// s8
	data1 102	// s8
	data1 115	// s8
	data1 47	// s8
	data1 104	// s8
	data1 111	// s8
	data1 109	// s8
	data1 101	// s8
	data1 95	// s8
	data1 122	// s8
	data1 117	// s8
	data1 99	// s8
	data1 107	// s8
	data1 101	// s8
	data1 114	// s8
	data1 109	// s8
	data1 115	// s8
	data1 47	// s8
	data1 115	// s8
	data1 114	// s8
	data1 99	// s8
	data1 47	// s8
	data1 100	// s8
	data1 103	// s8
	data1 101	// s8
	data1 109	// s8
	data1 109	// s8
	data1 95	// s8
	data1 115	// s8
	data1 112	// s8
	data1 108	// s8
	data1 105	// s8
	data1 116	// s8
	data1 47	// s8
	data1 99	// s8
	data1 111	// s8
	data1 112	// s8
	data1 121	// s8
	data1 46	// s8
	data1 99	// s8
	data1 59	// s8
	data1 109	// s8
	data1 101	// s8
	data1 109	// s8
	data1 99	// s8
	data1 112	// s8
	data1 121	// s8
	data1 50	// s8
	data1 68	// s8
	data1 95	// s8
	data1 111	// s8
	data1 109	// s8
	data1 112	// s8
	data1 59	// s8
	data1 53	// s8
	data1 55	// s8
	data1 59	// s8
	data1 53	// s8
	data1 55	// s8
	data1 59	// s8
	data1 59	// s8
$2$2_2__kmpc_loc_pack$1:
	data1 59	// s8
	data1 47	// s8
	data1 104	// s8
	data1 111	// s8
	data1 109	// s8
	data1 101	// s8
	data1 95	// s8
	data1 110	// s8
	data1 102	// s8
	data1 115	// s8
	data1 47	// s8
	data1 104	// s8
	data1 111	// s8
	data1 109	// s8
	data1 101	// s8
	data1 95	// s8
	data1 122	// s8
	data1 117	// s8
	data1 99	// s8
	data1 107	// s8
	data1 101	// s8
	data1 114	// s8
	data1 109	// s8
	data1 115	// s8
	data1 47	// s8
	data1 115	// s8
	data1 114	// s8
	data1 99	// s8
	data1 47	// s8
	data1 100	// s8
	data1 103	// s8
	data1 101	// s8
	data1 109	// s8
	data1 109	// s8
	data1 95	// s8
	data1 115	// s8
	data1 112	// s8
	data1 108	// s8
	data1 105	// s8
	data1 116	// s8
	data1 47	// s8
	data1 99	// s8
	data1 111	// s8
	data1 112	// s8
	data1 121	// s8
	data1 46	// s8
	data1 99	// s8
	data1 59	// s8
	data1 109	// s8
	data1 101	// s8
	data1 109	// s8
	data1 99	// s8
	data1 112	// s8
	data1 121	// s8
	data1 50	// s8
	data1 68	// s8
	data1 95	// s8
	data1 111	// s8
	data1 109	// s8
	data1 112	// s8
	data1 59	// s8
	data1 53	// s8
	data1 57	// s8
	data1 59	// s8
	data1 54	// s8
	data1 51	// s8
	data1 59	// s8
	data1 59	// s8
	.section .text, "xa", "progbits"
// -- End memcpy2D_omp, L_memcpy2D_omp_59__par_loop0_2$0
	.endp memcpy2D_omp#, L_memcpy2D_omp_59__par_loop0_2$0#
	.section .text, "xa", "progbits"
	.align 64
// -- Begin memcpy2D_unroll8
	.align 64
	.proc memcpy2D_unroll8#
// Block 0: entry modified  Pred:     Succ: 1 2  -GO
// Freq 1.0e+00
	.global memcpy2D_unroll8#

memcpy2D_unroll8:
memcpy2D_unroll8??unw:
 {   .mii
	alloc	r24=ar.pfs,6,81,0,24			//0: {44:1} 2453
	mov	r56=pr					//0: {44:1} 2444
	sxt4	r113=r35				//0: {44:1} 1691
 }
 {   .mmb
	cmp4.gt.unc	p8,p7=1,r32			//0: {46:5} 1711
	mov	r29=r34					//0: {44:1} 1687
	nop.b	0 ;;
 }
 {   .mmi
  (p7)	cmp4.lt.unc	p6,p15=r33,r0			//1: {49:2} 2252
	shladd	r112=r113,3,r0				//1: {44:1} 1692
	mov	r118=ar.lc				//1: {44:1} 1684
 }
 {   .mmi
	add	r110=8,r113				//1: {44:1} 1694
	mov	r111=r113				//1: {44:1} 1693
  (p7)	sxt4	r97=r33 ;;				//1: {49:2} 1719
 }
 {   .mmi
  (p7)	cmp.lt.unc	p14,p13=r97,r0			//2: {49:2} 2248
  (p15)add	r15=1,r0				//2: {49:2} 1718
	sub	r19=r34,r112				//2: {44:1} 1695
 }
 {   .mmi
  (p6)	add	r15=0,r0				//2: {49:2} 1717
  (p7)	sub	r17=r0,r35				//2: {50:6} 1722
  (p7)	sxt4	r16=r37 ;;				//2: {50:6} 1720
 }
 {   .mmi
	add	r101=1,r0				//3: {46:5} 1705
	add	r98=9,r0				//3: {44:1} 1710
	add	r18=r19,r112				//3: {44:1} 1696
 }
 {   .mmi
	add	r100=0,r0				//3: {44:1} 1706
	add	r73=8,r0				//3: {44:1} 1708
	add	r8=0,r0 ;;				//3: {44:1} 1707
 }
 {   .mmi
	add	r108=-24,r18				//4: {44:1} 1698
	add	r104=-56,r18				//4: {44:1} 1702
	add	r102=-8,r18				//4: {44:1} 1704
 }
 {   .mmi
	add	r105=-48,r18				//4: {44:1} 1701
	add	r109=-16,r18				//4: {44:1} 1697
	add	r103=-64,r18 ;;				//4: {44:1} 1703
 }
 {   .mmi
	add	r99=72,r0				//5: {44:1} 1709
	mov	r117=r32				//5: {44:1} 1685
	add	r106=-40,r18				//5: {44:1} 1700
 }
 {   .mmi
	mov	r116=r33				//5: {44:1} 1686
	mov	r115=r35				//5: {44:1} 1688
	add	r107=-32,r18 ;;				//5: {44:1} 1699
 }
 {   .mmi
	nop.m	0					//6: {44:1} 2505
	nop.m	0
	nop.i	0
 }
 {   .mib
	mov	r60=r36					//6: {44:1} 1689
	mov	r114=r37				//6: {44:1} 1690
// Branch taken probability 0.00
  (p8)	br.cond.dpnt	.b3_1 ;;			//6: {46:5} 1712
// Block 2: prolog collapsed  Pred: 0     Succ: 3  -G
// Freq 2.5e-02
 }
 {   .mmi
	cmp4.eq.unc	p12,p10=r15,r0			//0: {49:2} 2250
	shladd	r14=r16,3,r60				//0: {50:6} 1756
  (p14)add	r11=0,r0				//0: {49:2} 1754
 }
 {   .mmi
	add	r68=-8,r17				//0: {50:6} 1723
	add	r67=-7,r17				//0: {50:6} 1724
  (p13)add	r11=1,r0 ;;				//0: {49:2} 1755
 }
 {   .mmi
	cmp.eq.unc	p9,p8=r11,r0			//1: {49:2} 2246
	add	r82=-72,r14				//1: {50:6} 1762
  (p12)add	r10=7,r116				//1: {49:2} 1750
 }
 {   .mmi
	add	r81=-64,r14				//1: {50:6} 1763
	add	r80=-56,r14				//1: {50:6} 1764
  (p10)mov	r10=r116 ;;				//1: {49:2} 1751
 }
 {   .mmi
  (p8)	mov	r9=r97					//2: {49:2} 1761
	add	r79=-48,r14				//2: {50:6} 1765
	extr	r3=r10,3,29				//2: {49:2} 1757
 }
 {   .mmi
	add	r78=-40,r14				//2: {50:6} 1766
	add	r77=-32,r14				//2: {50:6} 1767
  (p9)	add	r9=7,r97 ;;				//2: {49:2} 1760
 }
 {   .mmi
	add	r76=-24,r14				//3: {50:6} 1768
	add	r72=-16,r14				//3: {50:6} 1769
	extr	r74=r9,3,61				//3: {49:2} 1771
 }
 {   .mmi
	add	r65=-6,r17				//3: {50:6} 1726
	add	r64=-5,r17				//3: {50:6} 1727
	sxt4	r75=r3 ;;				//3: {49:2} 1770
 }
 {   .mmi
	add	r30=-2,r17				//4: {50:6} 1732
	add	r28=-1,r17				//4: {50:6} 1733
	add	r63=-4,r17				//4: {50:6} 1729
 }
 {   .mmi
	add	r69=-9,r114				//4: {50:6} 1721
	add	r66=-7,r114				//4: {50:6} 1725
	add	r62=-3,r17 ;;				//4: {50:6} 1730
 }
 {   .mmi
	add	r96=-1,r114				//5: {49:2} 1734
	add	r95=7,r114				//5: {49:2} 1735
	add	r71=-5,r114				//5: {50:6} 1728
 }
 {   .mmi
	add	r94=23,r114				//5: {49:2} 1736
	add	r93=39,r114				//5: {49:2} 1737
	add	r70=-3,r114 ;;				//5: {50:6} 1731
 }
 {   .mmi
	add	r90=87,r114				//6: {49:2} 1740
	add	r89=1199,r114				//6: {49:2} 1741
	add	r92=55,r114				//6: {49:2} 1738
 }
 {   .mmi
	add	r88=16,r114				//6: {49:2} 1742
	add	r87=32,r114				//6: {49:2} 1743
	add	r91=71,r114 ;;				//6: {49:2} 1739
 }
 {   .mii
	add	r84=80,r114				//7: {49:2} 1746
	add	r85=64,r114				//7: {49:2} 1745
	nop.i	0
 }
 {   .mmb
	add	r83=149,r114				//7: {49:2} 1747
	add	r86=48,r114				//7: {49:2} 1744
	nop.b	0 ;;
// Block 3: lentry  Pred: 8 2     Succ: 4 7     In Loops: L0  -G
// Freq 5.0e+00
 }
.b3_3: 
 {   .mii
	cmp.gt.unc	p7,p0=1,r97			//0: {49:2} 1778
	cmp4.lt.unc	p6,p0=64,r116			//0: {49:2} 1772
	add	r61=8,r0				//0: {49:2} 1777
 }
 {   .mbb
	nop.m	0
// Branch taken probability 0.50
  (p6)	br.cond.dptk	.b3_4				//0: {49:2} 1773
// Block 7:  Pred: 3     Succ: 8 9     In Loops: L0  -G
// Freq 5.0e+00
// Branch taken probability 0.00
  (p7)	br.cond.dpnt	.b3_8 ;;			//0: {49:2} 1779
// Block 9: prolog  Pred: 7     Succ: 10     In Loops: L0  -O
// Freq 1.6e-02
 }
 {   .mmi
	add	r17=r114,r101				//0: {49:2} 1796
	add	r9=r101,r87				//0: {49:2} 1804
	mov	pr.rot=0x10000				//0: {49:2} 2028
 }
 {   .mmi
	add	r27=r101,r86				//0: {49:2} 1808
	add	r24=r101,r85				//0: {49:2} 1812
	add	r14=r101,r88 ;;				//0: {49:2} 1800
 }
 {   .mii
	add	r18=r101,r84				//1: {49:2} 1816
	sxt4	r16=r17					//1: {49:2} 1797
	sxt4	r11=r14					//1: {49:2} 1801
 }
 {   .mmb
	mov	r33=r61					//1: {49:2} 2027
	nop.m	0
	clrrrb.pr	 ;;				//1: {49:2} 2029
 }
 {   .mii
	shladd	r15=r16,3,r60				//2: {49:2} 1798
	sxt4	r3=r9					//2: {49:2} 1805
	sxt4	r17=r18					//2: {49:2} 1817
 }
 {   .mmb
	shladd	r10=r11,3,r60				//2: {49:2} 1802
	add	r11=-1,r97				//2: {49:2} 1823
	nop.b	0 ;;
 }
 {   .mmi
	lfetch.nt1	[r15]				//3: {49:2} 1799
	add	r15=r101,r83				//3: {49:2} 1820
	sxt4	r26=r27					//3: {49:2} 1809
 }
 {   .mmi
	shladd	r16=r17,3,r60				//3: {49:2} 1818
	shladd	r2=r3,3,r60				//3: {49:2} 1806
	sxt4	r20=r24 ;;				//3: {49:2} 1813
 }
 {   .mmi
	shladd	r19=r20,3,r60				//4: {49:2} 1814
	lfetch.nt1	[r16]				//4: {49:2} 1819
	sxt4	r14=r15					//4: {49:2} 1821
 }
 {   .mii
	add	r3=8,r102				//4: {49:2} 2025
	shladd	r25=r26,3,r60 ;;			//4: {49:2} 1810
	mov	ar.lc=r11				//5: {49:2} 1824
 }
 {   .mii
	lfetch.nt1	[r25]				//5: {49:2} 1811
	shladd	r9=r14,3,r60 ;;				//5: {49:2} 1822
	mov	ar.ec=7					//6: {49:2} 2030
 }
 {   .mmi
	lfetch.nt1	[r19] ;;			//6: {49:2} 1815
	lfetch.nt1	[r2]				//7: {49:2} 1807
	nop.i	0 ;;
 }
 {   .mii
	lfetch.nt1	[r10]				//8: {49:2} 1803
	nop.i	0
	nop.i	0 ;;
// Block 10: lentry lexit ltail collapsed pipelined  Pred: 10 9     Succ: 10 115     In Loops: L4 L0  -S
// Freq 3.1e+00
 }
.b3_10: 
 {   .mii
  (p17)ldfd	f32=[r36]				//2: {50:6} 1827 lat: 11
  (p16)add	r34=r73,r33				//0: {50:6} 1825
	nop.i	0 ;;
 }
 {   .mii
  (p16)add	r35=r34,r72				//1: {50:6} 1826
  (p16)add	r32=8,r33				//1: {49:2} 1832
	nop.i	0
 }
 {   .mmb
  (p16)lfetch.nt1	[r9],8				//1: {49:2} 1830
  (p22)stfd	[r3]=f37,8				//13: {50:6} 1829
// Branch taken probability 1.00
	br.ctop.sptk	.b3_10 ;;			//1: {49:2} 1833
// Block 115:  Pred: 10     Succ: 8     In Loops: L0  -O
// Freq 0.0e+00
 }
 {   .mib
	nop.m	0
	nop.i	0
	br.cond.sptk	.b3_8 ;;			//0: {49:2} 2454
// Block 4:  Pred: 3     Succ: 11 110     In Loops: L0  -G
// Freq 4.5e+00
 }
.b3_4: 
 {   .mii
	add	r27=r101,r96				//0: {49:2} 1861
	add	r10=1,r0				//0: {49:2} 1774
	cmp.gt.unc	p0,p7=1,r75			//0: {49:2} 1775
 }
 {   .mmb
	add	r19=r101,r95				//0: {49:2} 1834
	add	r20=r101,r94				//0: {49:2} 1838
// Branch taken probability 0.50
  (p7)	br.cond.dptk.many	.b3_11 ;;		//0: {49:2} 1776
// Block 110:  Pred: 4     Succ: 12     In Loops: L0  -G
// Freq 2.2e+00
 }
 {   .mmi
	cmp4.eq.unc	p15,p14=r100,r0 ;;		//1: {50:6} 2294
  (p15)mov	r20=r98					//2: {49:2} 1873
  (p15)add	r57=1,r0				//2: {49:2} 1871
 }
 {   .mib
  (p15)cmp.gt.unc	p0,p13=1,r74			//2: {49:2} 2297
  (p15)mov	r59=r110				//2: {49:2} 1872
	br.cond.sptk	.b3_12 ;;			//2: {50:6} 2313
// Block 11: collapsed  Pred: 4     Succ: 12     In Loops: L0  -G
// Freq 2.2e+00
 }
.b3_11: 
 {   .mmi
	add	r2=r101,r92				//0: {49:2} 1846
	add	r49=r101,r91				//0: {49:2} 1850
	sxt4	r26=r27					//0: {49:2} 1862
 }
 {   .mmi
	add	r25=r101,r90				//0: {49:2} 1854
	add	r24=r101,r93				//0: {49:2} 1842
	sxt4	r18=r19 ;;				//0: {49:2} 1835
 }
 {   .mii
	shladd	r17=r26,3,r60				//1: {49:2} 1863
	sxt4	r16=r2					//1: {49:2} 1847
	sxt4	r15=r24					//1: {49:2} 1843
 }
 {   .mmb
	add	r14=r101,r89				//1: {49:2} 1858
	shladd	r11=r18,3,r60				//1: {49:2} 1836
	nop.b	0 ;;
 }
 {   .mmi
	and	r9=15,r17				//2: {49:2} 1864
	shladd	r8=r15,3,r60				//2: {49:2} 1844
	sxt4	r3=r25					//2: {49:2} 1855
 }
 {   .mmi
	shladd	r2=r16,3,r60				//2: {49:2} 1848
	lfetch.nt1	[r11]				//2: {49:2} 1837
	sxt4	r27=r49 ;;				//2: {49:2} 1851
 }
 {   .mmi
	shladd	r26=r27,3,r60				//3: {49:2} 1852
	shladd	r25=r3,3,r60				//3: {49:2} 1856
	sxt4	r24=r14					//3: {49:2} 1859
 }
 {   .mmi
	cmp.eq.unc	p9,p8=r9,r0			//3: {49:2} 2292
	lfetch.nt1	[r8]				//3: {49:2} 1845
	sxt4	r19=r20 ;;				//3: {49:2} 1839
 }
 {   .mmi
	shladd	r18=r19,3,r60				//4: {49:2} 1840
	lfetch.nt1	[r26]				//4: {49:2} 1853
  (p9)	add	r100=0,r0				//4: {49:2} 1867
 }
 {   .mii
	shladd	r8=r24,3,r60				//4: {49:2} 1860
  (p8)	add	r100=1,r0 ;;				//4: {49:2} 1868
	cmp4.eq.unc	p15,p14=r100,r0			//5: {50:6} 2344
 }
 {   .mmi
	lfetch.nt1	[r18] ;;			//5: {49:2} 1841
	lfetch.nt1	[r25]				//6: {49:2} 1857
  (p15)add	r57=1,r0				//6: {49:2} 2345
 }
 {   .mmi
  (p15)mov	r20=r98					//6: {49:2} 2347
  (p15)cmp.gt.unc	p0,p13=1,r74			//6: {49:2} 2348
  (p15)mov	r59=r110 ;;				//6: {49:2} 2346
 }
 {   .mii
	lfetch.nt1	[r2]				//7: {49:2} 1849
	nop.i	0
	nop.i	0 ;;
// Block 12: collapsed  Pred: 11 110     Succ: 29 21     In Loops: L0  -G
// Freq 2.0e+00
 }
.b3_12: 
 {   .mmi
	cmp.eq.unc	p0,p10=r0,r0 ;;			//0: {50:6} 2300
  (p15)cmp.gt	p10,p0=1,r74				//1: {49:2} 2296
	nop.i	0
 }
 {   .mib
	nop.m	0
	nop.i	0
// Branch taken probability 0.50
  (p13)br.cond.dpnt	.b3_29 ;;			//1: {49:2} 1875
// Block 21: collapsed  Pred: 12     Succ: 25 28     In Loops: L0  -G
// Freq 1.0e+00
 }
 {   .mii
  (p14)mov	r59=r99					//0: {49:2} 1942
  (p14)add	r57=1,r0				//0: {49:2} 1940
  (p14)add	r61=64,r0				//0: {49:2} 1941
 }
 {   .mmb
  (p14)cmp.gt	p10,p0=1,r74				//0: {49:2} 2298
	nop.m	0
// Branch taken probability 0.00
  (p10)br.cond.dpnt	.b3_25 ;;			//0: {49:2} 1944
// Block 28: prolog  Pred: 21     Succ: 22     In Loops: L0  -O
// Freq 1.6e-02
 }
 {   .mmi
	add	r11=r61,r102				//0: {49:2} 2187
	add	r9=r61,r109				//0: {49:2} 2188
	mov	pr.rot=0x10000				//0: {49:2} 2208
 }
 {   .mmi
	add	r15=r61,r108				//0: {49:2} 2189
	add	r3=r61,r107				//0: {49:2} 2190
	add	r24=-1,r74 ;;				//0: {49:2} 2005
 }
 {   .mmi
	add	r17=r61,r105				//1: {49:2} 2192
	add	r2=r61,r104				//1: {49:2} 2193
	mov	ar.lc=r24				//1: {49:2} 2006
 }
 {   .mmi
	add	r10=r61,r103				//1: {49:2} 2194
	add	r16=r59,r72				//1: {49:2} 2195
	add	r24=r61,r106 ;;				//1: {49:2} 2191
 }
 {   .mii
	add	r19=r59,r77				//2: {49:2} 2197
	mov	ar.ec=4					//2: {49:2} 2210
	add	r18=r59,r76				//2: {49:2} 2196
 }
 {   .mmb
	add	r20=r59,r78				//2: {49:2} 2198
	add	r14=r59,r79				//2: {49:2} 2199
	clrrrb.pr	 ;;				//2: {49:2} 2209
 }
 {   .mmi
	add	r27=r59,r82				//3: {49:2} 2202
	mov	r33=r57					//3: {49:2} 2204
	add	r25=r59,r80				//3: {49:2} 2200
 }
 {   .mmi
	mov	r39=r61					//3: {49:2} 2205
	mov	r37=r59					//3: {49:2} 2206
	add	r26=r59,r81 ;;				//3: {49:2} 2201
// Block 22: lentry lexit ltail collapsed pipelined  Pred: 22 28     Succ: 22 23     In Loops: L1 L0  -S
// Freq 3.1e+00
 }
.b3_22: 
 {   .mmi
  (p16)ldfd	f42=[r27],64				//0: {50:6} 1946 lat: 11
  (p16)ldfd	f39=[r26],64				//0: {50:6} 1950 lat: 11
	nop.i	0
 }
 {   .mmi
  (p16)ldfd	f32=[r25],64				//0: {50:6} 1954 lat: 11
  (p19)stfd	[r24]=f57,64				//15: {50:6} 1960
	nop.i	0 ;;
 }
 {   .mmi
  (p16)ldfd	f45=[r20],64				//1: {50:6} 1962 lat: 11
  (p16)ldfd	f51=[r19],64				//1: {50:6} 1966 lat: 11
	nop.i	0
 }
 {   .mmi
  (p16)ldfd	f48=[r18],64				//1: {50:6} 1970 lat: 11
  (p19)stfd	[r17]=f35,64				//16: {50:6} 1956
	nop.i	0 ;;
 }
 {   .mmi
  (p16)ldfd	f35=[r16],64				//2: {50:6} 1974 lat: 11
  (p18)stfd	[r15]=f53,64				//12: {50:6} 1968
	nop.i	0
 }
 {   .mmi
  (p16)ldfd	f54=[r14],64				//2: {50:6} 1958 lat: 11
  (p19)stfd	[r11]=f38,64				//17: {50:6} 1976
	nop.i	0 ;;
 }
 {   .mmi
  (p18)stfd	[r10]=f44,64				//13: {50:6} 1948
  (p18)stfd	[r9]=f50,64				//13: {50:6} 1972
  (p16)add	r32=1,r33 ;;				//3: {49:2} 1981
 }
 {   .mii
  (p16)lfetch.nt1	[r8],64				//4: {49:2} 1977
  (p16)add	r36=64,r37				//4: {49:2} 1979
  (p16)add	r38=64,r39				//4: {49:2} 1980
 }
 {   .mmb
  (p18)stfd	[r3]=f47,64				//14: {50:6} 1964
  (p18)stfd	[r2]=f41,64				//14: {50:6} 1952
// Branch taken probability 1.00
	br.ctop.sptk	.b3_22 ;;			//4: {49:2} 1982
// Block 23: epilog  Pred: 22     Succ: 25     In Loops: L0  -O
// Freq 4.5e+00
 }
 {   .mii
	shladd	r25=r36,3,r0				//0: {49:2} 1983
	mov	r57=r36					//0: {49:2} 2207
	nop.i	0 ;;
 }
 {   .mib
	add	r10=-7,r25				//1: {49:2} 1984
	nop.i	0
	br.cond.sptk.many	.b3_25 ;;		//1: {49:2} 2302
// Block 29: prolog modified  Pred: 12     Succ: 18     In Loops: L0  -O
// Freq 1.6e-02
 }
.b3_29: 
 {   .mii
	mov	r43=r57					//0: {49:2} 2118
	mov	pr.rot=0x10000				//0: {49:2} 2122
	add	r25=-1,r74				//0: {49:2} 2007
 }
 {   .mmb
	mov	r46=r59					//0: {49:2} 2119
	mov	r40=r20					//0: {49:2} 2120
	clrrrb.pr	 ;;				//0: {49:2} 2123
 }
 {   .mii
	nop.m	0
	mov	ar.ec=2					//1: {49:2} 2124
	sxt4	r24=r25 ;;				//1: {49:2} 2008
 }
 {   .mii
	nop.m	0
	mov	ar.lc=r24				//2: {49:2} 2009
	nop.i	0
 }
 {   .bbb
	nop.b	0					//2: {49:2} 2506
	nop.b	0
	nop.b	0 ;;
// Block 18: lentry lexit ltail collapsed pipelined  Pred: 18 29     Succ: 18 19     In Loops: L2 L0  -S
// Freq 3.1e+00
 }
.b3_18: 
 {   .mmi
  (p16)add	r41=r40,r71				//0: {50:6} 1904
  (p16)add	r44=r40,r70				//0: {50:6} 1918
  (p16)add	r47=r40,r69				//0: {50:6} 1876
 }
 {   .mmi
  (p16)add	r35=r46,r68				//0: {50:6} 1882
  (p16)add	r38=r46,r67				//0: {50:6} 1886
  (p16)add	r49=r40,r66 ;;				//0: {50:6} 1890
 }
 {   .mmi
  (p16)add	r52=r46,r65				//1: {50:6} 1896
  (p16)add	r53=r46,r64				//1: {50:6} 1900
  (p16)sxt4	r54=r47					//1: {50:6} 1877
 }
 {   .mmi
  (p16)add	r50=r46,r63				//1: {50:6} 1910
  (p16)add	r51=r46,r62				//1: {50:6} 1914
  (p16)sxt4	r55=r49 ;;				//1: {50:6} 1891
 }
 {   .mmi
  (p16)shladd	r61=r54,3,r60				//2: {50:6} 1878
  (p16)shladd	r59=r55,3,r60				//2: {50:6} 1892
  (p16)sxt4	r57=r41					//2: {50:6} 1905
 }
 {   .mmi
  (p16)add	r47=r46,r30				//2: {50:6} 1924
  (p16)add	r49=r46,r28				//2: {50:6} 1928
  (p16)sxt4	r58=r44 ;;				//2: {50:6} 1919
 }
 {   .mmi
  (p16)shladd	r54=r57,3,r60				//3: {50:6} 1906
  (p16)shladd	r57=r58,3,r60				//3: {50:6} 1920
  (p16)sxt4	r41=r35					//3: {50:6} 1883
 }
 {   .mmi
  (p16)ldfpd	f39,f34=[r61]				//3: {50:6} 1879 lat: 11
  (p16)ldfpd	f41,f36=[r59]				//3: {50:6} 1893 lat: 11
  (p16)sxt4	r44=r38 ;;				//3: {50:6} 1887
 }
 {   .mmi
  (p16)ldfpd	f45,f32=[r54]				//4: {50:6} 1907 lat: 11
  (p16)ldfpd	f48,f43=[r57]				//4: {50:6} 1921 lat: 11
  (p16)sxt4	r38=r52					//4: {50:6} 1897
 }
 {   .mmi
  (p16)shladd	r35=r41,3,r29				//4: {50:6} 1884
  (p16)shladd	r32=r44,3,r29				//4: {50:6} 1888
  (p16)sxt4	r57=r53 ;;				//4: {50:6} 1901
 }
 {   .mmi
  (p16)shladd	r44=r38,3,r29				//5: {50:6} 1898
  (p16)shladd	r41=r57,3,r29				//5: {50:6} 1902
  (p16)sxt4	r52=r50					//5: {50:6} 1911
 }
 {   .mmi
  (p17)stfd	[r36]=f40				//14: {50:6} 1885
  (p17)stfd	[r45]=f42				//14: {50:6} 1899
  (p16)sxt4	r53=r51 ;;				//5: {50:6} 1915
 }
 {   .mmi
  (p16)shladd	r38=r52,3,r29				//6: {50:6} 1912
  (p16)shladd	r36=r53,3,r29				//6: {50:6} 1916
  (p16)sxt4	r45=r47					//6: {50:6} 1925
 }
 {   .mmi
  (p17)stfd	[r33]=f35				//15: {50:6} 1889
  (p17)stfd	[r42]=f37				//15: {50:6} 1903
  (p16)sxt4	r50=r49 ;;				//6: {50:6} 1929
 }
 {   .mmi
  (p16)shladd	r47=r45,3,r29				//7: {50:6} 1926
  (p16)shladd	r33=r50,3,r29				//7: {50:6} 1930
  (p16)add	r42=1,r43				//7: {49:2} 1936
 }
 {   .mmi
  (p17)stfd	[r39]=f46				//16: {50:6} 1913
  (p17)stfd	[r48]=f49				//16: {50:6} 1927
	nop.i	0 ;;
 }
 {   .mii
  (p16)lfetch.nt1	[r8],64				//8: {49:2} 1932
  (p16)add	r45=8,r46				//8: {49:2} 1934
  (p16)add	r39=8,r40				//8: {49:2} 1935
 }
 {   .mmb
  (p17)stfd	[r37]=f33				//17: {50:6} 1917
  (p17)stfd	[r34]=f44				//17: {50:6} 1931
// Branch taken probability 1.00
	br.ctop.sptk	.b3_18 ;;			//8: {49:2} 1937
// Block 19: epilog  Pred: 18     Succ: 25     In Loops: L0  -O
// Freq 4.5e+00
 }
 {   .mii
	shladd	r26=r44,3,r0				//0: {49:2} 1938
	mov	r57=r44					//0: {49:2} 2121
	nop.i	0 ;;
 }
 {   .mmi
	add	r10=-7,r26				//1: {49:2} 1939
	nop.m	0
	nop.i	0 ;;
// Block 25:  Pred: 21 23 19     Succ: 8 26     In Loops: L0  -G
// Freq 5.0e+00
 }
.b3_25: 
 {   .mii
	cmp4.gt.unc	p12,p0=r10,r116			//0: {49:2} 1995
	add	r18=r101,r10				//0: {49:2} 1986
	add	r17=r111,r10 ;;				//0: {49:2} 1991
 }
 {   .mii
	add	r16=r114,r18				//1: {49:2} 1987
	sub	r15=r17,r115,1 ;;			//1: {49:2} 1992
	sxt4	r14=r15					//2: {49:2} 1993
 }
 {   .mmi
	add	r11=-2,r16 ;;				//2: {49:2} 1988
	shladd	r3=r14,3,r29				//3: {49:2} 1994
	sxt4	r9=r11 ;;				//3: {49:2} 1989
 }
 {   .mib
	shladd	r9=r9,3,r60				//4: {49:2} 1990
	nop.i	0
// Branch taken probability 0.00
  (p12)br.cond.dpnt	.b3_8 ;;			//4: {49:2} 1996
// Block 26: prolog modified  Pred: 25     Succ: 27     In Loops: L0  -O
// Freq 1.0e+00
 }
 {   .mib
	sub	r2=r116,r10				//0: {0:0} 1997
	mov	pr.rot=0x10000				//0: {49:2} 2041
	clrrrb.pr	 ;;				//0: {49:2} 2042
 }
 {   .mii
	nop.m	0
	mov	ar.ec=12				//1: {49:2} 2043
	sxt4	r27=r2 ;;				//1: {49:2} 1998
 }
 {   .mii
	nop.m	0
	mov	ar.lc=r27				//2: {49:2} 1999
	nop.i	0
 }
 {   .bbb
	nop.b	0					//2: {49:2} 2507
	nop.b	0
	nop.b	0 ;;
// Block 27: lentry lexit ltail collapsed pipelined  Pred: 26 27     Succ: 27 8     In Loops: L3 L0  -S
// Freq 3.2e+01
 }
.b3_27: 
 {   .mmb
  (p16)ldfd	f32=[r9],8				//0: {50:6} 2000 lat: 11
  (p27)stfd	[r3]=f43,8				//11: {50:6} 2001
// Branch taken probability 0.97
	br.ctop.sptk	.b3_27 ;;			//0: {49:2} 2004
// Block 8: lexit epilog ltail  Pred: 27 115 25 7     Succ: 3 1     In Loops: L0  -G
// Freq 5.0e+00
 }
.b3_8: 
 {   .mmi
	add	r99=8,r99				//0: {46:5} 1790
	add	r73=8,r73				//0: {46:5} 1791
	add	r101=1,r101				//0: {46:5} 1793
 }
 {   .mmi
	add	r111=r111,r113				//0: {46:5} 1789
	add	r110=r110,r113				//0: {46:5} 1788
	add	r98=1,r98 ;;				//0: {46:5} 1792
 }
 {   .mmi
	add	r104=r104,r112				//1: {46:5} 1782
	add	r105=r105,r112				//1: {46:5} 1783
	add	r102=r102,r112				//1: {46:5} 1780
 }
 {   .mmi
	add	r106=r106,r112				//1: {46:5} 1784
	add	r107=r107,r112				//1: {46:5} 1785
	add	r103=r103,r112 ;;			//1: {46:5} 1781
 }
 {   .mii
	cmp4.le.unc	p6,p0=r101,r117			//2: {46:5} 1794
	add	r108=r108,r112				//2: {46:5} 1786
	add	r109=r109,r112				//2: {46:5} 1787
 }
 {   .mmb
	nop.m	0
	nop.m	0
// Branch taken probability 1.00
  (p6)	br.cond.dptk	.b3_3 ;;			//2: {46:5} 1795
// Block 1: exit epilog  Pred: 0 8     Succ:  -GO
// Freq 1.0e+00
 }
.b3_1: 
 {   .mii
	nop.m	0
	mov	ar.lc=r118 ;;				//0: {51:1} 1713
	mov	pr=r56,0x1003e				//1: {51:1} 2445
 }
 {   .mib
	nop.m	0
	nop.i	0
	br.ret.sptk.many	b0 ;;			//1: {51:1} 1714
 }
	.section	.IA_64.unwind_info,	"a", "progbits"
	.align 8
__udt_memcpy2D_unroll8??unw:
	data8 0x1000000000002				// length: 16 bytes
							// flags: 0x00
							// version: 1
	string "\x60\x2a"				//R3: prologue size 42
	string "\xe2\x00"				//P7: spill_base t/off 0x0
	string "\xe8\x01"				//P7: preds_when t/off 0x1
	string "\xb1\xb8"				//P3: preds_gr r56
	string "\xea\x08"				//P7: lc_when t/off 0x8
	string "\xb2\xf6"				//P3: lc_gr r118
	string "\x61\xdf\x02"				//R3: body size 351
	string "\x81"					//B1: label_state 1
	.section .IA_64.unwind, "ao", "unwind"
	data8 @segrel(memcpy2D_unroll8??unw#)
	data8 @segrel(memcpy2D_unroll8??unw#+0x830)
	data8 @segrel(__udt_memcpy2D_unroll8??unw)
	.section .text, "xa", "progbits"
// -- End memcpy2D_unroll8
	.endp memcpy2D_unroll8#
	.section .text, "xa", "progbits"
	.align 64
// -- Begin memcpy2D_unroll16
	.align 64
	.proc memcpy2D_unroll16#
// Block 0: entry  Pred:     Succ: 1 2  -GO
// Freq 1.0e+00
	.global memcpy2D_unroll16#

memcpy2D_unroll16:
memcpy2D_unroll16??unw:
 {   .mmi
	alloc	r2=ar.pfs,6,90,0,16			//0: {30:1} 3637
	add	sp=-128,sp				//0: {30:1} 3638
	mov	r48=pr					//0: {30:1} 3517
 }
 {   .mmi
	cmp4.gt.unc	p7,p6=1,r32			//0: {32:5} 2528
	add	r127=17,r0				//0: {30:1} 2527
	sxt4	r82=r35 ;;				//0: {30:1} 2516
 }
 {   .mmi
	mov	r29=ar.unat				//1: {30:1} 3639
	add	r26=96,sp				//1: {30:1} 3642
  (p6)	sxt4	r125=r33				//1: {35:2} 2537
 }
 {   .mmi
	add	r27=128,sp				//1: {30:1} 3640
  (p6)	sub	r25=r0,r35				//1: {36:6} 2540
	shladd	r80=r82,3,r0 ;;				//1: {30:1} 2517
 }
 {   .mmi
	st8	[r27]=r29,-24				//2: {30:1} 3641
	st8.spill	[r26]=r4,16			//2: {30:1} 3643
	mov	r29=ar.lc				//2: {30:1} 2509
 }
 {   .mmi
  (p6)	cmp.lt.unc	p15,p14=r125,r0			//2: {35:2} 3326
  (p6)	add	r98=-16,r25				//2: {36:6} 2541
	sub	r28=r34,r80 ;;				//2: {30:1} 2520
 }
 {   .mmi
	st8.spill	[r27]=r5,16			//3: {30:1} 3644
	add	r76=16,r82				//3: {30:1} 2519
	add	r74=r28,r80				//3: {30:1} 2521
 }
 {   .mmi
	mov	r78=r82					//3: {30:1} 2518
  (p6)	add	r19=19064,r0				//3: {35:2} 2603
	add	r5=0,r0 ;;				//3: {30:1} 2524
 }
 {   .mmi
	st8.spill	[r26]=r6			//4: {30:1} 3645
	add	r6=1,r0					//4: {32:5} 2523
  (p6)	sxt4	r26=r37					//4: {36:6} 2538
 }
 {   .mmi
  (p6)	add	r24=19128,r0				//4: {35:2} 2605
	add	r109=8,r0				//4: {30:1} 2525
	add	r4=-8,r74 ;;				//4: {30:1} 2522
 }
 {   .mmi
	st8.spill	[r27]=r7			//5: {30:1} 3646
	mov	r94=r32					//5: {30:1} 2510
  (p6)	shladd	r20=r26,3,r36				//5: {36:6} 2581
 }
 {   .mmi
	mov	r64=r34					//5: {30:1} 2512
	mov	r92=r33					//5: {30:1} 2511
	add	r7=136,r0 ;;				//5: {30:1} 2526
 }
 {   .mii
	mov	r84=r37					//6: {30:1} 2515
	mov	r88=r35					//6: {30:1} 2513
	mov	r95=r36					//6: {30:1} 2514
 }
 {   .mmb
  (p6)	add	r27=1,r0				//6: {35:2} 2536
	nop.m	0
// Branch taken probability 0.00
  (p7)	br.cond.dpnt	.b4_1 ;;			//6: {32:5} 2529
// Block 2:  Pred: 0     Succ: 31 32  -G
// Freq 2.5e-02
 }
 {   .mii
  (p15)add	r18=0,r0				//0: {35:2} 2579
	add	r126=128,r0				//0: {35:2} 2532
	cmp4.lt.unc	p13,p0=r92,r0			//0: {35:2} 2533
 }
 {   .mmb
  (p14)add	r18=1,r0				//0: {35:2} 2580
	add	r62=-136,r20				//0: {36:6} 2587
// Branch taken probability 0.40
  (p13)br.cond.dpnt	.b4_31 ;;			//0: {35:2} 2534
// Block 32: prolog modified collapsed  Pred: 2 31     Succ: 3  -GO
// Freq 2.5e-02
 }
.b4_32: 
 {   .mmi
	add	r21=88,sp				//0: {30:1} 3617
	add	r61=-128,r20				//0: {36:6} 2588
	cmp4.eq.unc	p12,p10=r27,r0			//0: {35:2} 3328
 }
 {   .mmi
	add	r59=-120,r20				//0: {36:6} 2589
	add	r60=-112,r20				//0: {36:6} 2590
	cmp.eq.unc	p9,p8=r18,r0 ;;			//0: {35:2} 3324
 }
 {   .mmi
  (p8)	mov	r17=r125				//1: {35:2} 2586
  (p9)	add	r17=15,r125				//1: {35:2} 2585
  (p10)mov	r16=r92					//1: {35:2} 2576
 }
 {   .mmi
	st8	[r21]=r29				//1: {30:1} 3614
	add	r57=-104,r20				//1: {36:6} 2591
  (p12)add	r16=15,r92 ;;				//1: {35:2} 2575
 }
 {   .mmi
	add	r56=-88,r20				//2: {36:6} 2593
	add	r53=-72,r20				//2: {36:6} 2595
	extr	r15=r16,4,28				//2: {35:2} 2582
 }
 {   .mmi
	add	r54=-64,r20				//2: {36:6} 2596
	add	r51=-56,r20				//2: {36:6} 2597
	add	r49=-96,r20 ;;				//2: {36:6} 2592
 }
 {   .mmi
	add	r30=-48,r20				//3: {36:6} 2598
	add	r55=-80,r20				//3: {36:6} 2594
	extr	r111=r17,4,60				//3: {35:2} 2608
 }
 {   .mmi
	add	r117=-40,r20				//3: {36:6} 2599
	add	r116=-32,r20				//3: {36:6} 2600
	sxt4	r112=r15 ;;				//3: {35:2} 2607
 }
 {   .mmi
	add	r93=-14,r25				//4: {36:6} 2544
	add	r96=-15,r25				//4: {36:6} 2542
	add	r115=-24,r20				//4: {36:6} 2601
 }
 {   .mmi
	add	r113=r20,r24				//4: {35:2} 2606
	add	r91=-13,r25				//4: {36:6} 2545
	add	r108=-16,r20 ;;				//4: {36:6} 2602
 }
 {   .mmi
	add	r83=-9,r25				//5: {36:6} 2551
	add	r86=-8,r25				//5: {36:6} 2553
	add	r90=-12,r25				//5: {36:6} 2547
 }
 {   .mmi
	add	r89=-11,r25				//5: {36:6} 2548
	add	r85=-7,r25				//5: {36:6} 2554
	add	r114=r20,r19 ;;				//5: {35:2} 2604
 }
 {   .mmi
	add	r79=-3,r25				//6: {36:6} 2560
	add	r75=-2,r25				//6: {36:6} 2562
	add	r77=-6,r25				//6: {36:6} 2556
 }
 {   .mmi
	add	r71=-5,r25				//6: {36:6} 2557
	add	r73=-1,r25				//6: {36:6} 2563
	add	r87=-10,r25 ;;				//6: {36:6} 2550
 }
 {   .mmi
	add	r106=-11,r84				//7: {36:6} 2549
	add	r104=-9,r84				//7: {36:6} 2552
	add	r102=-15,r84				//7: {36:6} 2543
 }
 {   .mmi
	add	r107=-13,r84				//7: {36:6} 2546
	add	r103=-7,r84				//7: {36:6} 2555
	add	r81=-4,r25 ;;				//7: {36:6} 2559
 }
 {   .mmi
	add	r67=2391,r84				//8: {35:2} 2565
	add	r124=-1,r84				//8: {35:2} 2566
	add	r101=-5,r84				//8: {36:6} 2558
 }
 {   .mmi
	add	r100=-3,r84				//8: {36:6} 2561
	add	r123=15,r84				//8: {35:2} 2567
	add	r105=-17,r84 ;;				//8: {36:6} 2539
 }
 {   .mmi
	add	r119=79,r84				//9: {35:2} 2571
	add	r118=95,r84				//9: {35:2} 2572
	add	r122=31,r84				//9: {35:2} 2568
 }
 {   .mmi
	add	r120=63,r84				//9: {35:2} 2570
	add	r110=128,r0				//9: {35:2} 2609
	add	r69=2383,r84 ;;				//9: {35:2} 2564
 }
 {   .mii
	add	r121=47,r84				//10: {35:2} 2569
	nop.i	0
	nop.i	0
 }
 {   .bbb
	nop.b	0					//10: {35:2} 3723
	nop.b	0
	nop.b	0 ;;
// Block 3: lentry  Pred: 8 32     Succ: 4 7     In Loops: L0  -G
// Freq 5.0e+00
 }
.b4_3: 
 {   .mii
	cmp.gt.unc	p7,p0=1,r125			//0: {35:2} 2616
	cmp4.gt.unc	p6,p0=r92,r126			//0: {35:2} 2610
	add	r16=8,r0				//0: {35:2} 2615
 }
 {   .mbb
	nop.m	0
// Branch taken probability 0.50
  (p6)	br.cond.dptk	.b4_4				//0: {35:2} 2611
// Block 7:  Pred: 3     Succ: 8 9     In Loops: L0  -G
// Freq 5.0e+00
// Branch taken probability 0.00
  (p7)	br.cond.dpnt	.b4_8 ;;			//0: {35:2} 2617
// Block 9: prolog  Pred: 7     Succ: 10     In Loops: L0  -O
// Freq 7.8e-03
 }
 {   .mmi
	add	r28=r84,r6				//0: {35:2} 2628
	add	r18=32,r84				//0: {35:2} 2637
	mov	pr.rot=0x10000				//0: {35:2} 2974
 }
 {   .mmi
	add	r11=48,r84				//0: {35:2} 2642
	add	r3=64,r84				//0: {35:2} 2647
	add	r25=16,r84 ;;				//0: {35:2} 2632
 }
 {   .mmi
	add	r17=r6,r18				//1: {35:2} 2638
	add	r10=r6,r11				//1: {35:2} 2643
	sxt4	r27=r28					//1: {35:2} 2629
 }
 {   .mmi
	add	r2=r6,r3				//1: {35:2} 2648
	add	r3=8,r4					//1: {35:2} 2971
	add	r24=r6,r25 ;;				//1: {35:2} 2633
 }
 {   .mii
	shladd	r26=r27,3,r95				//2: {35:2} 2630
	sxt4	r20=r24					//2: {35:2} 2634
	sxt4	r15=r17					//2: {35:2} 2639
 }
 {   .mmb
	add	r27=80,r84				//2: {35:2} 2652
	add	r17=-1,r125				//2: {35:2} 2661
	clrrrb.pr	 ;;				//2: {35:2} 2975
 }
 {   .mmi
	lfetch.nt1	[r26]				//3: {35:2} 2631
	add	r26=r6,r27				//3: {35:2} 2653
	sxt4	r9=r10					//3: {35:2} 2644
 }
 {   .mmi
	shladd	r19=r20,3,r95				//3: {35:2} 2635
	add	r20=149,r84				//3: {35:2} 2657
	sxt4	r29=r2 ;;				//3: {35:2} 2649
 }
 {   .mmi
	lfetch.nt1	[r19]				//4: {35:2} 2636
	shladd	r8=r9,3,r95				//4: {35:2} 2645
	sxt4	r25=r26					//4: {35:2} 2654
 }
 {   .mmi
	shladd	r28=r29,3,r95				//4: {35:2} 2650
	shladd	r14=r15,3,r95				//4: {35:2} 2640
	add	r19=r6,r20 ;;				//4: {35:2} 2658
 }
 {   .mii
	lfetch.nt1	[r8]				//5: {35:2} 2646
	sxt4	r18=r19					//5: {35:2} 2659
	shladd	r24=r25,3,r95				//5: {35:2} 2655
 }
 {   .mmi
	mov	r33=r16 ;;				//5: {35:2} 2973
	lfetch.nt1	[r24]				//6: {35:2} 2656
	mov	ar.lc=r17				//6: {35:2} 2662
 }
 {   .mii
	nop.m	0
	shladd	r8=r18,3,r95 ;;				//6: {35:2} 2660
	mov	ar.ec=7					//7: {35:2} 2976
 }
 {   .mmi
	lfetch.nt1	[r28] ;;			//7: {35:2} 2651
	lfetch.nt1	[r14]				//8: {35:2} 2641
	nop.i	0 ;;
// Block 10: lentry lexit ltail collapsed pipelined  Pred: 10 9     Succ: 10 117     In Loops: L4 L0  -S
// Freq 1.6e+00
 }
.b4_10: 
 {   .mii
  (p17)ldfd	f32=[r36]				//2: {36:6} 2665 lat: 11
  (p16)add	r34=r109,r33				//0: {36:6} 2663
	nop.i	0 ;;
 }
 {   .mii
  (p16)add	r35=r34,r108				//1: {36:6} 2664
  (p16)add	r32=8,r33				//1: {35:2} 2670
	nop.i	0
 }
 {   .mmb
  (p16)lfetch.nt1	[r8],8				//1: {35:2} 2668
  (p22)stfd	[r3]=f37,8				//13: {36:6} 2667
// Branch taken probability 1.00
	br.ctop.sptk	.b4_10 ;;			//1: {35:2} 2671
// Block 117:  Pred: 10     Succ: 8     In Loops: L0  -O
// Freq 0.0e+00
 }
 {   .mib
	nop.m	0
	nop.i	0
	br.cond.sptk	.b4_8 ;;			//0: {35:2} 3647
// Block 4:  Pred: 3     Succ: 11 112     In Loops: L0  -G
// Freq 4.5e+00
 }
.b4_4: 
 {   .mii
	add	r2=r6,r124				//0: {35:2} 2698
	add	r15=1,r0				//0: {35:2} 2612
	cmp.gt.unc	p0,p7=1,r112			//0: {35:2} 2613
 }
 {   .mmb
	add	r26=r6,r123				//0: {35:2} 2672
	add	r3=r6,r122				//0: {35:2} 2676
// Branch taken probability 0.50
  (p7)	br.cond.dptk.many	.b4_11 ;;		//0: {35:2} 2614
// Block 112:  Pred: 4     Succ: 12     In Loops: L0  -G
// Freq 2.2e+00
 }
 {   .mmi
	cmp4.eq.unc	p15,p14=r5,r0 ;;		//1: {36:6} 3370
  (p15)mov	r26=r127				//2: {35:2} 2708
  (p15)add	r70=1,r0				//2: {35:2} 2706
 }
 {   .mib
  (p15)cmp.gt.unc	p0,p13=1,r111			//2: {35:2} 3373
  (p15)mov	r3=r76					//2: {35:2} 2707
	br.cond.sptk	.b4_12 ;;			//2: {36:6} 3390
// Block 11: modified collapsed  Pred: 4     Succ: 12     In Loops: L0  -G
// Freq 4.5e+00
 }
.b4_11: 
 {   .mmi
	add	r9=r6,r120				//0: {35:2} 2684
	add	r8=r6,r119				//0: {35:2} 2688
	sxt4	r29=r2					//0: {35:2} 2699
 }
 {   .mmi
	add	r28=r6,r118				//0: {35:2} 2692
	add	r27=r6,r121				//0: {35:2} 2680
	sxt4	r25=r26 ;;				//0: {35:2} 2673
 }
 {   .mii
	shladd	r24=r29,3,r95				//1: {35:2} 2700
	sxt4	r20=r9					//1: {35:2} 2685
	sxt4	r19=r27					//1: {35:2} 2681
 }
 {   .mmb
	shladd	r18=r25,3,r95				//1: {35:2} 2674
	nop.m	0
	nop.b	0 ;;
 }
 {   .mmi
	and	r17=15,r24				//2: {35:2} 2701
	shladd	r16=r19,3,r95				//2: {35:2} 2682
	sxt4	r14=r28					//2: {35:2} 2693
 }
 {   .mmi
	shladd	r11=r20,3,r95				//2: {35:2} 2686
	lfetch.nt1	[r18]				//2: {35:2} 2675
	sxt4	r10=r8 ;;				//2: {35:2} 2689
 }
 {   .mmi
	shladd	r9=r10,3,r95				//3: {35:2} 2690
	shladd	r8=r14,3,r95				//3: {35:2} 2694
	cmp.eq.unc	p9,p8=r17,r0			//3: {35:2} 3368
 }
 {   .mii
	lfetch.nt1	[r16]				//3: {35:2} 2683
	sxt4	r2=r3 ;;				//3: {35:2} 2677
  (p9)	add	r5=0,r0					//4: {35:2} 2704
 }
 {   .mmi
	shladd	r29=r2,3,r95				//4: {35:2} 2678
	lfetch.nt1	[r9]				//4: {35:2} 2691
  (p8)	add	r5=1,r0 ;;				//4: {35:2} 2705
 }
 {   .mii
	lfetch.nt1	[r29]				//5: {35:2} 2679
	cmp4.eq.unc	p15,p14=r5,r0			//5: {36:6} 3418
	nop.i	0 ;;
 }
 {   .mmi
	lfetch.nt1	[r8]				//6: {35:2} 2695
  (p15)mov	r26=r127				//6: {35:2} 3421
  (p15)add	r70=1,r0				//6: {35:2} 3419
 }
 {   .mii
  (p15)cmp.gt.unc	p0,p13=1,r111			//6: {35:2} 3422
  (p15)mov	r3=r76					//6: {35:2} 3420
	nop.i	0 ;;
 }
 {   .mmi
	lfetch.nt1	[r11]				//7: {35:2} 2687
	nop.m	0
	nop.i	0
 }
 {   .bbb
	nop.b	0					//7: {35:2} 3724
	nop.b	0
	nop.b	0 ;;
// Block 12: collapsed  Pred: 11 112     Succ: 30 22     In Loops: L0  -G
// Freq 2.0e+00
 }
.b4_12: 
 {   .mmi
	cmp.eq.unc	p0,p10=r0,r0 ;;			//0: {36:6} 3376
  (p15)cmp.gt	p10,p0=1,r111				//1: {35:2} 3372
	nop.i	0
 }
 {   .mib
	nop.m	0
	nop.i	0
// Branch taken probability 0.50
  (p13)br.cond.dpnt	.b4_30 ;;			//1: {35:2} 2710
// Block 22: collapsed  Pred: 12     Succ: 27 23     In Loops: L0  -G
// Freq 1.0e+00
 }
 {   .mii
  (p14)mov	r65=r7					//0: {35:2} 2839
  (p14)add	r68=1,r0				//0: {35:2} 2837
  (p14)mov	r70=r110				//0: {35:2} 2838
 }
 {   .mmb
  (p14)cmp.gt	p10,p0=1,r111				//0: {35:2} 3374
	nop.m	0
// Branch taken probability 0.00
  (p10)br.cond.dpnt	.b4_27 ;;			//0: {35:2} 2841
// Block 23: prolog  Pred: 22     Succ: 24     In Loops: L0  -O
// Freq 7.8e-03
 }
 {   .mmi
	add	r33=-120,r74				//0: {36:6} 2843
	add	r18=-112,r74				//0: {36:6} 2844
	mov	pr.rot=0x10000				//0: {35:2} 3280
 }
 {   .mmi
	add	r17=-104,r74				//0: {36:6} 2845
	add	r14=-96,r74				//0: {36:6} 2846
	add	r34=-128,r74 ;;				//0: {36:6} 2842
 }
 {   .mmi
	add	r9=-80,r74				//1: {36:6} 2848
	add	r8=-72,r74				//1: {36:6} 2849
	mov	ar.ec=3					//1: {35:2} 3282
 }
 {   .mmi
	add	r3=-64,r74				//1: {36:6} 2850
	add	r2=-56,r74				//1: {36:6} 2851
	add	r11=-88,r74 ;;				//1: {36:6} 2847
 }
 {   .mmi
	add	r27=-40,r74				//2: {36:6} 2853
	add	r26=-32,r74				//2: {36:6} 2854
	add	r58=r70,r11				//2: {35:2} 3261
 }
 {   .mmi
	add	r25=-24,r74				//2: {36:6} 2855
	add	r24=-16,r74				//2: {36:6} 2856
	add	r28=-48,r74 ;;				//2: {36:6} 2852
 }
 {   .mmi
	add	r10=r70,r27				//3: {35:2} 3255
	add	r27=r65,r117				//3: {35:2} 3272
	add	r29=r70,r28				//3: {35:2} 3256
 }
 {   .mmi
	add	r16=r70,r26				//3: {35:2} 3254
	add	r26=r65,r116				//3: {35:2} 3271
	add	r20=-1,r111 ;;				//3: {36:6} 2857
 }
 {   .mmi
	add	r15=r70,r25				//4: {35:2} 3253
	add	r25=r65,r115				//4: {35:2} 3270
	mov	ar.lc=r20				//4: {36:6} 2858
 }
 {   .mmi
	add	r24=r70,r24				//4: {35:2} 3252
	add	r28=r70,r2				//4: {35:2} 3257
	add	r20=r70,r34 ;;				//4: {35:2} 3266
 }
 {   .mii
	add	r50=r70,r8				//5: {35:2} 3259
	add	r2=r70,r9				//5: {35:2} 3260
	add	r9=r70,r17				//5: {35:2} 3263
 }
 {   .mmb
	add	r17=r70,r33				//5: {35:2} 3265
	mov	r33=r68					//5: {35:2} 3276
	clrrrb.pr	 ;;				//5: {35:2} 3281
 }
 {   .mii
	add	r11=r65,r113				//6: {35:2} 3267
	add	r8=r65,r114				//6: {35:2} 3268
	add	r52=r70,r3				//6: {35:2} 3258
 }
 {   .mmb
	add	r3=r70,r14				//6: {35:2} 3262
	add	r14=r70,r18				//6: {35:2} 3264
	nop.b	0 ;;
 }
 {   .mii
	mov	r38=r70					//7: {35:2} 3277
	add	r18=r65,r108				//7: {35:2} 3269
	add	r19=r70,r4				//7: {35:2} 3251
 }
 {   .mmb
	mov	r36=r65					//7: {35:2} 3278
	nop.m	0
	nop.b	0 ;;
// Block 24: lentry lexit ltail collapsed pipelined  Pred: 24 23     Succ: 24 25     In Loops: L1 L0  -S
// Freq 1.6e+00
 }
.b4_24: 
 {   .mmi
  (p16)add	r39=r36,r62				//0: {36:6} 2859
  (p16)add	r47=r36,r61				//0: {36:6} 2863
  (p16)add	r35=r36,r60				//0: {36:6} 2871
 }
 {   .mmi
  (p16)add	r40=r36,r59				//0: {36:6} 2867
  (p18)stfd	[r58]=f45,128				//22: {36:6} 2882
  (p16)add	r37=r36,r57 ;;				//0: {36:6} 2875
 }
 {   .mmi
  (p16)add	r46=r36,r56				//1: {36:6} 2883
  (p16)add	r45=r36,r55				//1: {36:6} 2887
  (p16)add	r44=r36,r54				//1: {36:6} 2895
 }
 {   .mmi
  (p16)add	r43=r36,r53				//1: {36:6} 2891
  (p18)stfd	[r52]=f36,128				//23: {36:6} 2894
  (p16)add	r42=r36,r51 ;;				//1: {36:6} 2899
 }
 {   .mmi
  (p18)stfd	[r50]=f43,128				//24: {36:6} 2890
  (p16)ldfd	f36=[r40]				//2: {36:6} 2868 lat: 11
  (p16)add	r41=r36,r49				//2: {36:6} 2879
 }
 {   .mmi
  (p16)ldfd	f38=[r47]				//2: {36:6} 2864 lat: 11
  (p16)ldfd	f40=[r39]				//2: {36:6} 2860 lat: 11
  (p16)add	r40=r36,r30 ;;				//2: {36:6} 2903
 }
 {   .mmi
  (p16)ldfd	f45=[r37]				//3: {36:6} 2876 lat: 11
  (p16)ldfd	f43=[r41]				//3: {36:6} 2880 lat: 11
	nop.i	0
 }
 {   .mmi
  (p16)ldfd	f47=[r46]				//3: {36:6} 2884 lat: 11
  (p18)stfd	[r29]=f34,128				//25: {36:6} 2902
	nop.i	0 ;;
 }
 {   .mmi
  (p16)ldfd	f34=[r43]				//4: {36:6} 2892 lat: 11
  (p16)ldfd	f49=[r44]				//4: {36:6} 2896 lat: 11
	nop.i	0
 }
 {   .mmi
  (p16)ldfd	f32=[r42]				//4: {36:6} 2900 lat: 11
  (p17)stfd	[r28]=f50,128				//15: {36:6} 2898
	nop.i	0 ;;
 }
 {   .mmi
  (p16)ldfd	f52=[r27],128				//5: {36:6} 2908 lat: 11
  (p16)ldfd	f50=[r26],128				//5: {36:6} 2912 lat: 11
	nop.i	0
 }
 {   .mmi
  (p16)ldfd	f54=[r25],128				//5: {36:6} 2916 lat: 11
  (p17)stfd	[r24]=f55,128				//16: {36:6} 2918
	nop.i	0 ;;
 }
 {   .mmi
  (p17)stfd	[r20]=f41,128				//17: {36:6} 2862
  (p17)stfd	[r19]=f58,128				//17: {36:6} 2922
	nop.i	0
 }
 {   .mmi
  (p16)ldfd	f55=[r40]				//6: {36:6} 2904 lat: 11
  (p16)ldfd	f57=[r18],128				//6: {36:6} 2920 lat: 11
	nop.i	0 ;;
 }
 {   .mmi
  (p17)stfd	[r17]=f39,128				//18: {36:6} 2866
  (p17)stfd	[r16]=f53,128				//18: {36:6} 2910
	nop.i	0
 }
 {   .mmi
  (p16)ldfd	f58=[r35]				//7: {36:6} 2872 lat: 11
  (p16)ldfd	f41=[r45]				//7: {36:6} 2888 lat: 11
	nop.i	0 ;;
 }
 {   .mmi
  (p17)stfd	[r15]=f51,128				//19: {36:6} 2914
  (p17)stfd	[r14]=f37,128				//19: {36:6} 2870
	nop.i	0 ;;
 }
 {   .mii
  (p16)lfetch.nt1	[r11],128			//9: {35:2} 2926
  (p16)add	r32=1,r33				//9: {35:2} 2929
	nop.i	0
 }
 {   .mmb
  (p17)stfd	[r10]=f56,128				//20: {36:6} 2906
  (p17)stfd	[r9]=f59,128				//20: {36:6} 2874
	nop.b	0 ;;
 }
 {   .mii
  (p16)lfetch.nt1	[r8],128			//10: {35:2} 2924
  (p16)add	r35=128,r36				//10: {35:2} 2927
  (p16)add	r37=128,r38				//10: {35:2} 2928
 }
 {   .mmb
  (p17)stfd	[r3]=f46,128				//21: {36:6} 2878
  (p17)stfd	[r2]=f48,128				//21: {36:6} 2886
// Branch taken probability 1.00
	br.ctop.sptk	.b4_24 ;;			//10: {35:2} 2930
// Block 25: epilog  Pred: 24     Succ: 27     In Loops: L0  -O
// Freq 4.5e+00
 }
 {   .mii
	shladd	r19=r35,4,r0				//0: {35:2} 2931
	mov	r68=r35					//0: {35:2} 3279
	nop.i	0 ;;
 }
 {   .mib
	add	r15=-15,r19				//1: {35:2} 2932
	nop.i	0
	br.cond.sptk.many	.b4_27 ;;		//1: {35:2} 3378
// Block 30: prolog modified  Pred: 12     Succ: 19     In Loops: L0  -O
// Freq 7.8e-03
 }
.b4_30: 
 {   .mmi
	add	r22=24,sp				//0: {32:5} 3619
	add	r21=16,sp				//0: {32:5} 3618
	mov	pr.rot=0x10000				//0: {35:2} 3135
 }
 {   .mmi
	add	r23=32,sp				//0: {32:5} 3620
	mov	r33=r70					//0: {35:2} 3131
	add	r9=-1,r111 ;;				//0: {32:5} 2953
 }
 {   .mmi
	st8	[r21]=r80				//1: {32:5} 3577
	st8	[r22]=r94				//1: {32:5} 3579
	mov	ar.ec=2					//1: {35:2} 3137
 }
 {   .mmi
	add	r22=48,sp				//1: {35:2} 3622
	add	r21=40,sp				//1: {35:2} 3621
	sxt4	r8=r9 ;;				//1: {32:5} 2954
 }
 {   .mmi
	st8	[r22]=r84				//2: {35:2} 3585
	st8	[r23]=r82				//2: {32:5} 3581
	mov	ar.lc=r8				//2: {32:5} 2955
 }
 {   .mmi
	add	r22=72,sp				//2: {32:5} 3625
	mov	r42=r3					//2: {35:2} 3132
	add	r23=56,sp ;;				//2: {32:5} 3623
 }
 {   .mmi
	st8	[r23]=r78				//3: {32:5} 3587
	st8	[r21]=r88				//3: {35:2} 3583
	add	r21=64,sp				//3: {32:5} 3624
 }
 {   .mib
	mov	r35=r26					//3: {35:2} 3133
	add	r23=80,sp				//3: {35:2} 3626
	clrrrb.pr	 ;;				//3: {35:2} 3136
 }
 {   .mmi
	st8	[r21]=r76				//4: {32:5} 3589
	st8	[r23]=r92				//4: {35:2} 3593
	nop.i	0 ;;
 }
 {   .mii
	st8	[r22]=r74				//5: {32:5} 3591
	nop.i	0
	nop.i	0
 }
 {   .bbb
	nop.b	0					//5: {32:5} 3725
	nop.b	0
	nop.b	0 ;;
// Block 19: lentry lexit ltail collapsed pipelined  Pred: 19 30     Succ: 19 20     In Loops: L2 L0  -S
// Freq 1.6e+00
 }
.b4_19: 
 {   .mmi
  (p16)add	r41=r35,r107				//0: {36:6} 2739
  (p16)add	r43=r35,r106				//0: {36:6} 2753
  (p16)add	r52=r35,r105				//0: {36:6} 2711
 }
 {   .mmi
  (p16)add	r34=r35,r104				//0: {36:6} 2767
  (p16)add	r37=r35,r103				//0: {36:6} 2781
  (p16)add	r50=r35,r102 ;;				//0: {36:6} 2725
 }
 {   .mmi
  (p16)add	r76=r35,r101				//1: {36:6} 2795
  (p16)add	r74=r35,r100				//1: {36:6} 2809
  (p16)sxt4	r50=r50					//1: {36:6} 2726
 }
 {   .mmi
  (p16)add	r99=r42,r98				//1: {36:6} 2717
  (p16)add	r97=r42,r96				//1: {36:6} 2721
  (p16)sxt4	r65=r52 ;;				//1: {36:6} 2712
 }
 {   .mmi
  (p16)shladd	r58=r65,3,r95				//2: {36:6} 2713
  (p16)shladd	r52=r50,3,r95				//2: {36:6} 2727
  (p16)sxt4	r50=r41					//2: {36:6} 2740
 }
 {   .mmi
  (p16)add	r94=r42,r93				//2: {36:6} 2731
  (p16)add	r92=r42,r91				//2: {36:6} 2735
  (p16)sxt4	r72=r43 ;;				//2: {36:6} 2754
 }
 {   .mmi
  (p16)shladd	r41=r50,3,r95				//3: {36:6} 2741
  (p16)shladd	r43=r72,3,r95				//3: {36:6} 2755
  (p16)sxt4	r70=r34					//3: {36:6} 2768
 }
 {   .mmi
  (p16)ldfpd	f37,f34=[r58]				//3: {36:6} 2714 lat: 11
  (p16)ldfpd	f38,f35=[r52]				//3: {36:6} 2728 lat: 11
  (p16)sxt4	r68=r37 ;;				//3: {36:6} 2782
 }
 {   .mmi
  (p16)shladd	r34=r70,3,r95				//4: {36:6} 2769
  (p16)shladd	r37=r68,3,r95				//4: {36:6} 2783
  (p16)sxt4	r65=r76					//4: {36:6} 2796
 }
 {   .mmi
  (p16)ldfpd	f42,f39=[r41]				//4: {36:6} 2742 lat: 11
  (p16)ldfpd	f43,f40=[r43]				//4: {36:6} 2756 lat: 11
  (p16)sxt4	r58=r74 ;;				//4: {36:6} 2810
 }
 {   .mmi
  (p16)shladd	r52=r65,3,r95				//5: {36:6} 2797
  (p16)shladd	r50=r58,3,r95				//5: {36:6} 2811
  (p16)add	r41=r42,r90				//5: {36:6} 2745
 }
 {   .mmi
  (p16)ldfpd	f52,f49=[r34]				//5: {36:6} 2770 lat: 11
  (p16)ldfpd	f47,f44=[r37]				//5: {36:6} 2784 lat: 11
  (p16)add	r43=r42,r89 ;;				//5: {36:6} 2749
 }
 {   .mmi
  (p16)ldfpd	f60,f57=[r52]				//6: {36:6} 2798 lat: 11
  (p16)ldfpd	f55,f32=[r50]				//6: {36:6} 2812 lat: 11
  (p16)add	r88=r42,r87				//6: {36:6} 2759
 }
 {   .mmi
  (p16)add	r34=r42,r86				//6: {36:6} 2773
  (p16)add	r37=r42,r85				//6: {36:6} 2777
  (p16)add	r84=r42,r83 ;;				//6: {36:6} 2763
 }
 {   .mmi
  (p16)add	r82=r42,r81				//7: {36:6} 2801
  (p16)add	r80=r42,r79				//7: {36:6} 2805
  (p16)add	r78=r42,r77				//7: {36:6} 2787
 }
 {   .mmi
  (p16)add	r76=r42,r75				//7: {36:6} 2815
  (p16)add	r74=r42,r73				//7: {36:6} 2819
  (p16)add	r72=r42,r71 ;;				//7: {36:6} 2791
 }
 {   .mmi
  (p16)add	r70=r35,r69				//8: {35:2} 2823
  (p16)add	r68=r35,r67				//8: {35:2} 2827
  (p16)sxt4	r52=r97					//8: {36:6} 2722
 }
 {   .mmi
  (p17)lfetch.nt1	[r66]				//26: {35:2} 2826
  (p17)stfd	[r44]=f53				//26: {36:6} 2776
  (p16)sxt4	r50=r99 ;;				//8: {36:6} 2718
 }
 {   .mmi
  (p17)lfetch.nt1	[r47]				//27: {35:2} 2830
  (p16)shladd	r65=r50,3,r64				//9: {36:6} 2719
  (p16)sxt4	r58=r94					//9: {36:6} 2732
 }
 {   .mmi
  (p16)shladd	r44=r52,3,r64				//9: {36:6} 2723
  (p17)stfd	[r38]=f50				//27: {36:6} 2780
  (p16)sxt4	r52=r92 ;;				//9: {36:6} 2736
 }
 {   .mmi
  (p16)shladd	r47=r58,3,r64				//10: {36:6} 2733
  (p16)shladd	r38=r52,3,r64				//10: {36:6} 2737
  (p16)sxt4	r50=r41					//10: {36:6} 2746
 }
 {   .mmi
  (p17)stfd	[r40]=f48				//28: {36:6} 2790
  (p17)stfd	[r63]=f61				//28: {36:6} 2804
  (p16)sxt4	r52=r43 ;;				//10: {36:6} 2750
 }
 {   .mmi
  (p16)shladd	r41=r50,3,r64				//11: {36:6} 2747
  (p16)shladd	r40=r52,3,r64				//11: {36:6} 2751
  (p16)sxt4	r43=r88					//11: {36:6} 2760
 }
 {   .mmi
  (p17)stfd	[r36]=f45				//29: {36:6} 2794
  (p17)stfd	[r46]=f58				//29: {36:6} 2808
  (p16)sxt4	r50=r84 ;;				//11: {36:6} 2764
 }
 {   .mmi
  (p16)shladd	r46=r43,3,r64				//12: {36:6} 2761
  (p16)shladd	r36=r50,3,r64				//12: {36:6} 2765
  (p16)sxt4	r58=r34					//12: {36:6} 2774
 }
 {   .mmi
  (p17)stfd	[r45]=f56				//30: {36:6} 2818
  (p16)add	r32=1,r33				//12: {35:2} 2833
  (p16)sxt4	r52=r37 ;;				//12: {36:6} 2778
 }
 {   .mmi
  (p16)shladd	r43=r58,3,r64				//13: {36:6} 2775
  (p16)shladd	r37=r52,3,r64				//13: {36:6} 2779
  (p16)sxt4	r45=r78					//13: {36:6} 2788
 }
 {   .mmi
  (p17)stfd	[r39]=f33				//31: {36:6} 2822
  (p16)add	r34=16,r35				//13: {35:2} 2832
  (p16)sxt4	r50=r72 ;;				//13: {36:6} 2792
 }
 {   .mmi
  (p16)shladd	r39=r45,3,r64				//14: {36:6} 2789
  (p16)shladd	r35=r50,3,r64				//14: {36:6} 2793
  (p16)sxt4	r58=r82					//14: {36:6} 2802
 }
 {   .mmi
  (p16)stfd	[r65]=f37				//14: {36:6} 2720
  (p16)stfd	[r47]=f38				//14: {36:6} 2734
  (p16)sxt4	r52=r80 ;;				//14: {36:6} 2806
 }
 {   .mmi
  (p16)shladd	r63=r58,3,r64				//15: {36:6} 2803
  (p16)shladd	r45=r52,3,r64				//15: {36:6} 2807
  (p16)sxt4	r50=r76					//15: {36:6} 2816
 }
 {   .mmi
  (p16)stfd	[r44]=f34				//15: {36:6} 2724
  (p16)stfd	[r38]=f35				//15: {36:6} 2738
  (p16)sxt4	r58=r74 ;;				//15: {36:6} 2820
 }
 {   .mmi
  (p16)shladd	r44=r50,3,r64				//16: {36:6} 2817
  (p16)shladd	r38=r58,3,r64				//16: {36:6} 2821
  (p16)sxt4	r52=r70					//16: {35:2} 2824
 }
 {   .mmi
  (p16)stfd	[r41]=f42				//16: {36:6} 2748
  (p16)stfd	[r46]=f43				//16: {36:6} 2762
  (p16)sxt4	r50=r68 ;;				//16: {35:2} 2828
 }
 {   .mii
  (p16)stfd	[r40]=f39				//17: {36:6} 2752
  (p16)shladd	r66=r52,3,r95				//17: {35:2} 2825
  (p16)shladd	r46=r50,3,r95				//17: {35:2} 2829
 }
 {   .mmb
  (p16)stfd	[r36]=f40				//17: {36:6} 2766
  (p16)add	r41=16,r42				//17: {35:2} 2831
// Branch taken probability 1.00
	br.ctop.sptk	.b4_19 ;;			//17: {35:2} 2834
// Block 20: epilog  Pred: 19     Succ: 27     In Loops: L0  -O
// Freq 4.5e+00
 }
 {   .mii
	add	r21=64,sp				//0: {32:5} 3629
	add	r23=80,sp				//0: {35:2} 3627
	add	r22=72,sp				//0: {32:5} 3628
 }
 {   .mmb
	shladd	r10=r34,4,r0				//0: {35:2} 2835
	mov	r70=r34					//0: {35:2} 3134
	nop.b	0 ;;
 }
 {   .mmi
	ld8	r92=[r23]				//1: {35:2} 3611
	ld8	r74=[r22]				//1: {32:5} 3609
	add	r23=56,sp				//1: {32:5} 3630
 }
 {   .mmi
	add	r15=-15,r10				//1: {35:2} 2836
	nop.m	0
	add	r22=48,sp ;;				//1: {35:2} 3631
 }
 {   .mmi
	ld8	r76=[r21]				//2: {32:5} 3607
	ld8	r78=[r23]				//2: {32:5} 3605
	add	r21=40,sp				//2: {35:2} 3632
 }
 {   .mmi
	nop.m	0
	nop.m	0
	add	r23=32,sp ;;				//2: {32:5} 3633
 }
 {   .mmi
	ld8	r84=[r22]				//3: {35:2} 3603
	ld8	r88=[r21]				//3: {35:2} 3601
	add	r22=24,sp				//3: {32:5} 3634
 }
 {   .mii
	nop.m	0
	add	r21=16,sp				//3: {32:5} 3635
	nop.i	0 ;;
 }
 {   .mmi
	ld8	r82=[r23]				//4: {32:5} 3599
	ld8	r94=[r22]				//4: {32:5} 3597
	nop.i	0 ;;
 }
 {   .mii
	ld8	r80=[r21]				//5: {32:5} 3595
	nop.i	0
	nop.i	0 ;;
// Block 27:  Pred: 22 25 20     Succ: 8 29     In Loops: L0  -G
// Freq 5.0e+00
 }
.b4_27: 
 {   .mii
	cmp4.gt.unc	p12,p0=r15,r92			//0: {35:2} 2943
	add	r19=r6,r15				//0: {35:2} 2934
	add	r18=r78,r15 ;;				//0: {35:2} 2939
 }
 {   .mii
	add	r17=r84,r19				//1: {35:2} 2935
	sub	r16=r18,r88,1 ;;			//1: {35:2} 2940
	sxt4	r14=r16					//2: {35:2} 2941
 }
 {   .mmi
	add	r11=-2,r17 ;;				//2: {35:2} 2936
	shladd	r3=r14,3,r64				//3: {35:2} 2942
	sxt4	r10=r11 ;;				//3: {35:2} 2937
 }
 {   .mib
	shladd	r8=r10,3,r95				//4: {35:2} 2938
	nop.i	0
// Branch taken probability 0.00
  (p12)br.cond.dpnt	.b4_8 ;;			//4: {35:2} 2944
// Block 29: prolog modified  Pred: 27     Succ: 28     In Loops: L0  -O
// Freq 1.0e-00
 }
 {   .mib
	sub	r14=r92,r15				//0: {0:0} 2950
	mov	pr.rot=0x10000				//0: {35:2} 2987
	clrrrb.pr	 ;;				//0: {35:2} 2988
 }
 {   .mii
	nop.m	0
	mov	ar.ec=12				//1: {35:2} 2989
	sxt4	r11=r14 ;;				//1: {35:2} 2951
 }
 {   .mii
	nop.m	0
	mov	ar.lc=r11				//2: {35:2} 2952
	nop.i	0
 }
 {   .bbb
	nop.b	0					//2: {35:2} 3726
	nop.b	0
	nop.b	0 ;;
// Block 28: lentry lexit ltail collapsed pipelined  Pred: 29 28     Succ: 28 8     In Loops: L3 L0  -S
// Freq 6.8e+01
 }
.b4_28: 
 {   .mmb
  (p16)ldfd	f32=[r8],8				//0: {36:6} 2945 lat: 11
  (p27)stfd	[r3]=f43,8				//11: {36:6} 2946
// Branch taken probability 0.99
	br.ctop.sptk	.b4_28 ;;			//0: {35:2} 2949
// Block 8: lexit epilog ltail  Pred: 28 117 27 7     Succ: 3 64     In Loops: L0  -G
// Freq 5.0e+00
 }
.b4_8: 
 {   .mmi
	add	r7=8,r7					//0: {32:5} 2622
	add	r109=8,r109				//0: {32:5} 2623
	add	r6=1,r6					//0: {32:5} 2625
 }
 {   .mmi
	add	r78=r78,r82				//0: {32:5} 2621
	add	r76=r76,r82				//0: {32:5} 2620
	add	r127=1,r127 ;;				//0: {32:5} 2624
 }
 {   .mii
	cmp4.le.unc	p6,p0=r6,r94			//1: {32:5} 2626
	add	r4=r4,r80				//1: {32:5} 2618
	add	r74=r74,r80				//1: {32:5} 2619
 }
 {   .mmb
	nop.m	0
	nop.m	0
// Branch taken probability 1.00
  (p6)	br.cond.dptk	.b4_3 ;;			//1: {32:5} 2627
// Block 64: epilog  Pred: 8     Succ: 1  -GO
// Freq 2.5e-02
 }
 {   .mmi
	add	r22=88,sp ;;				//0: {30:1} 3636
	ld8	r29=[r22]				//1: {30:1} 3616
	nop.i	0 ;;
// Block 1: exit  Pred: 0 64     Succ:  -GO
// Freq 1.0e+00
 }
.b4_1: 
 {   .mii
	add	r27=120,sp				//0: {37:1} 3648
	mov	ar.lc=r29				//0: {37:1} 2530
	add	r26=112,sp ;;				//0: {37:1} 3650
 }
 {   .mmi
	ld8.fill	r7=[r27],-16			//1: {37:1} 3649
	ld8.fill	r6=[r26],-16			//1: {37:1} 3651
	mov	pr=r48,0x1003e ;;			//1: {37:1} 3518
 }
 {   .mmi
	ld8.fill	r5=[r27],24			//2: {37:1} 3652
	ld8.fill	r4=[r26]			//2: {37:1} 3653
	nop.i	0 ;;
 }
 {   .mii
	ld8	r29=[r27]				//3: {37:1} 3654
	add	sp=128,sp				//3: {37:1} 3656
	nop.i	0 ;;
 }
 {   .mib
	mov	ar.unat=r29				//4: {37:1} 3655
	nop.i	0
	br.ret.sptk.many	b0 ;;			//4: {37:1} 2531
// Block 31:  Pred: 2     Succ: 32  -G
// Freq 1.0e-02
 }
.b4_31: 
 {   .mib
	add	r27=0,r0				//0: {35:2} 2535
	nop.i	0
	br.cond.sptk.many	.b4_32 ;;		//0: {35:2} 3379
 }
	.section	.IA_64.unwind_info,	"a", "progbits"
	.align 8
__udt_memcpy2D_unroll16??unw:
	data8 0x1000000000006				// length: 48 bytes
							// flags: 0x00
							// version: 1
	string "\x60\x2a"				//R3: prologue size 42
	string "\xe0\x01\x08"				//P7: mem_stack_f t/off 0x1 size 128
	string "\xe2\x04"				//P7: spill_base t/off 0x4
	string "\xb9\xf0\x00\x00"			//P5: grmask 0xf frmask 0x0
	string "\xb8\x00\x00\x00\x20\x08\x00\x80\x08\x00\x00\x00"//P4: imask, len 42
	string "\xec\x0c"				//P7: unat_when t/off 0xc
	string "\xf0\x05\x20"				//P8: unat_sprel t/off 0x20
	string "\xe8\x02"				//P7: preds_when t/off 0x2
	string "\xb1\xb0"				//P3: preds_gr r48
	string "\xea\x0e"				//P7: lc_when t/off 0xe
	string "\xb2\x9d"				//P3: lc_gr r29
	string "\x61\x9f\x04"				//R3: body size 543
	string "\x81"					//B1: label_state 1
	string "\xc0\x04"				//B2: epilog time 4 ecount 0
	string "\x61\x03"				//R3: body size 3
	string "\xa1"					//B1: copy_state 1
	string "\xc0\x00"				//B2: epilog time 0 ecount 0
	string "\x00"
	.section .IA_64.unwind, "ao", "unwind"
	data8 @segrel(memcpy2D_unroll16??unw#)
	data8 @segrel(memcpy2D_unroll16??unw#+0xc40)
	data8 @segrel(__udt_memcpy2D_unroll16??unw)
	.section .text, "xa", "progbits"
// -- End memcpy2D_unroll16
	.endp memcpy2D_unroll16#
	.section .text, "xa", "progbits"
	.align 64
// -- Begin memcpy2D_intel
	.align 64
	.proc memcpy2D_intel#
// Block 0: entry  Pred:     Succ: 1 2  -GO
// Freq 1.0e+00
	.global memcpy2D_intel#

memcpy2D_intel:
memcpy2D_intel??unw:
 {   .mmi
	alloc	r38=ar.pfs,6,5,3,0			//0: {7:1} 3799
	cmp4.le.unc	p7,p6=r32,r0			//0: {9:5} 3742
	mov	r39=b0					//0: {7:1} 3728
 }
 {   .mii
	mov	r41=gp					//0: {7:1} 3789
	sxt4	r19=r37 ;;				//0: {7:1} 3738
  (p6)	sxt4	r16=r32					//1: {10:9} 3750
 }
 {   .mii
	shladd	r42=r19,3,r0				//1: {7:1} 3739
	sxt4	r18=r35 ;;				//1: {7:1} 3740
	mov	r40=ar.lc				//2: {7:1} 3729
 }
 {   .mib
	shladd	r37=r18,3,r0				//2: {7:1} 3741
  (p6)	sxt4	r17=r33					//2: {10:9} 3748
// Branch taken probability 0.50
  (p7)	br.cond.dptk	.b5_1 ;;			//2: {9:5} 3743
// Block 2: prolog modified  Pred: 0     Succ: 3  -GO
// Freq 5.0e-01
 }
 {   .mii
	mov	r32=r37					//0: {7:1} 3797
	add	r15=-1,r16				//0: {10:9} 3751
	shladd	r35=r17,3,r0				//0: {10:9} 3749
 }
 {   .mmi
	mov	r33=r42 ;;				//0: {7:1} 3794
	nop.m	0
	sxt4	r14=r15 ;;				//1: {10:9} 3752
 }
 {   .mii
	nop.m	0
	mov	ar.lc=r14				//2: {10:9} 3753
	nop.i	0
 }
 {   .bbb
	nop.b	0					//2: {10:9} 3822
	nop.b	0
	nop.b	0 ;;
// Block 3: lentry  Pred: 2 4     Succ: 4     In Loops: L0  -GO
// Freq 5.0e+00
 }
.b5_3: 
 {   .mii
	mov	r45=r35					//0: {10:9} 3756
	mov	r43=r34					//0: {10:9} 3754
	mov	r44=r36					//0: {10:9} 3755
 }
 {   .mmb
	add	r34=r34,r32				//0: {9:26} 3759
	add	r36=r36,r33				//0: {9:26} 3760
	br.call.sptk	b0=memcpy# ;;			//0: {10:9} 3757
// Block 4: lexit ltail  Pred: 3     Succ: 3 1     In Loops: L0  -GO
// Freq 5.0e+00
 }
 {   .mib
	mov	gp=r41					//2: {10:9} 3788
	nop.i	0
// Branch taken probability 0.90
	br.cloop.sptk	.b5_3 ;;			//2: {9:5} 3761
// Block 1: exit epilog  Pred: 0 4     Succ:  -GO
// Freq 1.0e+00
 }
.b5_1: 
 {   .mii
	nop.m	0
	mov	ar.pfs=r38 ;;				//0: {12:1} 3745
	mov	ar.lc=r40 ;;				//1: {12:1} 3746
 }
 {   .mib
	nop.m	0
	mov	b0=r39					//2: {12:1} 3744
	br.ret.sptk.many	b0 ;;			//2: {12:1} 3747
 }
	.section	.IA_64.unwind_info,	"a", "progbits"
	.align 8
__udt_memcpy2D_intel??unw:
	data8 0x1000000000003				// length: 24 bytes
							// flags: 0x00
							// version: 1
	string "\x60\x0c"				//R3: prologue size 12
	string "\xe6\x00"				//P7: pfs_when t/off 0x0
	string "\xb1\x26"				//P3: pfs_gr r38
	string "\xe4\x02"				//P7: rp_when t/off 0x2
	string "\xb0\xa7"				//P3: rp_gr r39
	string "\xea\x08"				//P7: lc_when t/off 0x8
	string "\xb2\xa8"				//P3: lc_gr r40
	string "\x61\x1b"				//R3: body size 27
	string "\x81"					//B1: label_state 1
	string "\x00\x00\x00\x00\x00\x00\x00"
	.section .IA_64.unwind, "ao", "unwind"
	data8 @segrel(memcpy2D_intel??unw#)
	data8 @segrel(memcpy2D_intel??unw#+0xd0)
	data8 @segrel(__udt_memcpy2D_intel??unw)
	.section .text, "xa", "progbits"
// -- End memcpy2D_intel
	.endp memcpy2D_intel#
	.section .sbss, "was", "nobits"
	.align 16
	.align 4
___kmpv_zeromemcpy2D_omp_0:
	.size	___kmpv_zeromemcpy2D_omp_0#,4
	.skip 4	// pad
	.type	__kmpc_for_static_fini#,@function
	.global __kmpc_for_static_fini#
	.type	__kmpc_for_static_init_4#,@function
	.global __kmpc_for_static_init_4#
	.type	__kmpc_end_serialized_parallel#,@function
	.global __kmpc_end_serialized_parallel#
	.type	__kmpc_serialized_parallel#,@function
	.global __kmpc_serialized_parallel#
	.type	__kmpc_fork_call#,@function
	.global __kmpc_fork_call#
	.type	__kmpc_ok_to_fork#,@function
	.global __kmpc_ok_to_fork#
// mark_proc_addr_taken L_memcpy2D_omp_59__par_loop0_2$0;
	.type	__kmpc_global_thread_num#,@function
	.global __kmpc_global_thread_num#
	.type	memcpy#,@function
	.global memcpy#
// End
